ARM GAS  C:\Users\Ilaria\AppData\Local\Temp\ccua2TMG.s 			page 1


   1              		.syntax unified
   2              		.cpu cortex-m3
   3              		.fpu softvfp
   4              		.eabi_attribute 20, 1
   5              		.eabi_attribute 21, 1
   6              		.eabi_attribute 23, 3
   7              		.eabi_attribute 24, 1
   8              		.eabi_attribute 25, 1
   9              		.eabi_attribute 26, 1
  10              		.eabi_attribute 30, 1
  11              		.eabi_attribute 34, 1
  12              		.eabi_attribute 18, 4
  13              		.thumb
  14              		.syntax unified
  15              		.file	"Functions.c"
  16              		.text
  17              	.Ltext0:
  18              		.cfi_sections	.debug_frame
  19              		.section	.text.show_menu,"ax",%progbits
  20              		.align	2
  21              		.global	show_menu
  22              		.thumb
  23              		.thumb_func
  24              		.type	show_menu, %function
  25              	show_menu:
  26              	.LFB64:
  27              		.file 1 "Functions.c"
   1:Functions.c   **** /* ========================================
   2:Functions.c   ****  *
   3:Functions.c   ****  * Copyright YOUR COMPANY, THE YEAR
   4:Functions.c   ****  * All Rights Reserved
   5:Functions.c   ****  * UNPUBLISHED, LICENSED SOFTWARE.
   6:Functions.c   ****  *
   7:Functions.c   ****  * CONFIDENTIAL AND PROPRIETARY INFORMATION
   8:Functions.c   ****  * WHICH IS THE PROPERTY OF your company.
   9:Functions.c   ****  *
  10:Functions.c   ****  * ========================================
  11:Functions.c   **** */
  12:Functions.c   **** 
  13:Functions.c   **** /*Include headers*/
  14:Functions.c   **** #include "InterruptRoutines.h"
  15:Functions.c   **** #include "Functions.h"
  16:Functions.c   **** #include "project.h"
  17:Functions.c   **** 
  18:Functions.c   **** /*Include macros*/
  19:Functions.c   **** #include "header.h"
  20:Functions.c   **** 
  21:Functions.c   **** /* EEPROM 25LC256 Library */
  22:Functions.c   **** #include "25LC256.h"
  23:Functions.c   **** 
  24:Functions.c   **** /* FUNCTION FOR MENU' ON UART */
  25:Functions.c   **** void show_menu()
  26:Functions.c   **** {
  28              		.loc 1 26 0
  29              		.cfi_startproc
  30              		@ args = 0, pretend = 0, frame = 0
  31              		@ frame_needed = 0, uses_anonymous_args = 0
ARM GAS  C:\Users\Ilaria\AppData\Local\Temp\ccua2TMG.s 			page 2


  32 0000 38B5     		push	{r3, r4, r5, lr}
  33              		.cfi_def_cfa_offset 16
  34              		.cfi_offset 3, -16
  35              		.cfi_offset 4, -12
  36              		.cfi_offset 5, -8
  37              		.cfi_offset 14, -4
  27:Functions.c   ****     
  28:Functions.c   ****     UART_1_PutString("\r\n");
  38              		.loc 1 28 0
  39 0002 214D     		ldr	r5, .L3
  40 0004 2846     		mov	r0, r5
  41 0006 FFF7FEFF 		bl	UART_1_PutString
  42              	.LVL0:
  29:Functions.c   ****     UART_1_PutString("*************************************** MENU' *******************************
  43              		.loc 1 29 0
  44 000a 2048     		ldr	r0, .L3+4
  45 000c FFF7FEFF 		bl	UART_1_PutString
  46              	.LVL1:
  30:Functions.c   ****     UART_1_PutString("-----------------------------------------------------------------------------
  47              		.loc 1 30 0
  48 0010 1F4C     		ldr	r4, .L3+8
  49 0012 2046     		mov	r0, r4
  50 0014 FFF7FEFF 		bl	UART_1_PutString
  51              	.LVL2:
  31:Functions.c   ****     UART_1_PutString("Command  | Result                  \r\n");
  52              		.loc 1 31 0
  53 0018 1E48     		ldr	r0, .L3+12
  54 001a FFF7FEFF 		bl	UART_1_PutString
  55              	.LVL3:
  32:Functions.c   ****     UART_1_PutString("-----------------------------------------------------------------------------
  56              		.loc 1 32 0
  57 001e 2046     		mov	r0, r4
  58 0020 FFF7FEFF 		bl	UART_1_PutString
  59              	.LVL4:
  33:Functions.c   ****     UART_1_PutString("b        | Start data acquisition from the accelerometer and storage on the E
  60              		.loc 1 33 0
  61 0024 1C48     		ldr	r0, .L3+16
  62 0026 FFF7FEFF 		bl	UART_1_PutString
  63              	.LVL5:
  34:Functions.c   ****     UART_1_PutString("-----------------------------------------------------------------------------
  64              		.loc 1 34 0
  65 002a 2046     		mov	r0, r4
  66 002c FFF7FEFF 		bl	UART_1_PutString
  67              	.LVL6:
  35:Functions.c   ****     UART_1_PutString("s        | Stop data acquisition from the accelerometer and storage on the EE
  68              		.loc 1 35 0
  69 0030 1A48     		ldr	r0, .L3+20
  70 0032 FFF7FEFF 		bl	UART_1_PutString
  71              	.LVL7:
  36:Functions.c   ****     UART_1_PutString("-----------------------------------------------------------------------------
  72              		.loc 1 36 0
  73 0036 2046     		mov	r0, r4
  74 0038 FFF7FEFF 		bl	UART_1_PutString
  75              	.LVL8:
  37:Functions.c   ****     UART_1_PutString("f        | Configuration of the accelerometer full scale range \r\n");
  76              		.loc 1 37 0
  77 003c 1848     		ldr	r0, .L3+24
ARM GAS  C:\Users\Ilaria\AppData\Local\Temp\ccua2TMG.s 			page 3


  78 003e FFF7FEFF 		bl	UART_1_PutString
  79              	.LVL9:
  38:Functions.c   ****     UART_1_PutString("-----------------------------------------------------------------------------
  80              		.loc 1 38 0
  81 0042 2046     		mov	r0, r4
  82 0044 FFF7FEFF 		bl	UART_1_PutString
  83              	.LVL10:
  39:Functions.c   ****     UART_1_PutString("p        | Configuration of the accelerometer sampling frequency \r\n");
  84              		.loc 1 39 0
  85 0048 1648     		ldr	r0, .L3+28
  86 004a FFF7FEFF 		bl	UART_1_PutString
  87              	.LVL11:
  40:Functions.c   ****     UART_1_PutString("-----------------------------------------------------------------------------
  88              		.loc 1 40 0
  89 004e 2046     		mov	r0, r4
  90 0050 FFF7FEFF 		bl	UART_1_PutString
  91              	.LVL12:
  41:Functions.c   ****     UART_1_PutString("v        | Start data visualization in the Bridge Control Panel \r\n");
  92              		.loc 1 41 0
  93 0054 1448     		ldr	r0, .L3+32
  94 0056 FFF7FEFF 		bl	UART_1_PutString
  95              	.LVL13:
  42:Functions.c   ****     UART_1_PutString("-----------------------------------------------------------------------------
  96              		.loc 1 42 0
  97 005a 2046     		mov	r0, r4
  98 005c FFF7FEFF 		bl	UART_1_PutString
  99              	.LVL14:
  43:Functions.c   ****     UART_1_PutString("u        | Stop data visualization in the Bridge Control Panel \r\n");
 100              		.loc 1 43 0
 101 0060 1248     		ldr	r0, .L3+36
 102 0062 FFF7FEFF 		bl	UART_1_PutString
 103              	.LVL15:
  44:Functions.c   ****     UART_1_PutString("-----------------------------------------------------------------------------
 104              		.loc 1 44 0
 105 0066 2046     		mov	r0, r4
 106 0068 FFF7FEFF 		bl	UART_1_PutString
 107              	.LVL16:
  45:Functions.c   ****     UART_1_PutString("t        | Store the temperature data \r\n");
 108              		.loc 1 45 0
 109 006c 1048     		ldr	r0, .L3+40
 110 006e FFF7FEFF 		bl	UART_1_PutString
 111              	.LVL17:
  46:Functions.c   ****     UART_1_PutString("-----------------------------------------------------------------------------
 112              		.loc 1 46 0
 113 0072 2046     		mov	r0, r4
 114 0074 FFF7FEFF 		bl	UART_1_PutString
 115              	.LVL18:
  47:Functions.c   ****     UART_1_PutString("\r\n");
 116              		.loc 1 47 0
 117 0078 2846     		mov	r0, r5
 118 007a FFF7FEFF 		bl	UART_1_PutString
 119              	.LVL19:
  48:Functions.c   ****     UART_1_PutString("*****************************************************************************
 120              		.loc 1 48 0
 121 007e 0D48     		ldr	r0, .L3+44
 122 0080 FFF7FEFF 		bl	UART_1_PutString
 123              	.LVL20:
ARM GAS  C:\Users\Ilaria\AppData\Local\Temp\ccua2TMG.s 			page 4


 124 0084 38BD     		pop	{r3, r4, r5, pc}
 125              	.L4:
 126 0086 00BF     		.align	2
 127              	.L3:
 128 0088 00000000 		.word	.LC0
 129 008c 04000000 		.word	.LC1
 130 0090 64000000 		.word	.LC2
 131 0094 C4000000 		.word	.LC3
 132 0098 EC000000 		.word	.LC4
 133 009c 4C010000 		.word	.LC5
 134 00a0 A8010000 		.word	.LC6
 135 00a4 EC010000 		.word	.LC7
 136 00a8 30020000 		.word	.LC8
 137 00ac 74020000 		.word	.LC9
 138 00b0 B8020000 		.word	.LC10
 139 00b4 E4020000 		.word	.LC11
 140              		.cfi_endproc
 141              	.LFE64:
 142              		.size	show_menu, .-show_menu
 143              		.section	.text.Store_EEPROM,"ax",%progbits
 144              		.align	2
 145              		.global	Store_EEPROM
 146              		.thumb
 147              		.thumb_func
 148              		.type	Store_EEPROM, %function
 149              	Store_EEPROM:
 150              	.LFB65:
  49:Functions.c   ****     
  50:Functions.c   ****     return;
  51:Functions.c   **** }
  52:Functions.c   **** 
  53:Functions.c   **** /*Send data of accelerometer and temperaure to EEPROM */
  54:Functions.c   **** void Store_EEPROM(uint8_t counter, uint8_t* tobepacked, uint8_t* tobesentEEPROM)
  55:Functions.c   **** {
 151              		.loc 1 55 0
 152              		.cfi_startproc
 153              		@ args = 0, pretend = 0, frame = 0
 154              		@ frame_needed = 0, uses_anonymous_args = 0
 155              	.LVL21:
 156 0000 38B5     		push	{r3, r4, r5, lr}
 157              		.cfi_def_cfa_offset 16
 158              		.cfi_offset 3, -16
 159              		.cfi_offset 4, -12
 160              		.cfi_offset 5, -8
 161              		.cfi_offset 14, -4
 162 0002 0B46     		mov	r3, r1
 163 0004 1146     		mov	r1, r2
 164              	.LVL22:
  56:Functions.c   ****     // Store X, Y, Z accelerometer data
  57:Functions.c   ****     tobesentEEPROM[0] = tobepacked[1];
 165              		.loc 1 57 0
 166 0006 5A78     		ldrb	r2, [r3, #1]	@ zero_extendqisi2
 167              	.LVL23:
 168 0008 0A70     		strb	r2, [r1]
  58:Functions.c   ****     tobesentEEPROM[1] = ( tobepacked[0] & 0b1100000 ) | ( tobepacked[3]>>2 );
 169              		.loc 1 58 0
 170 000a 1A78     		ldrb	r2, [r3]	@ zero_extendqisi2
ARM GAS  C:\Users\Ilaria\AppData\Local\Temp\ccua2TMG.s 			page 5


 171 000c DC78     		ldrb	r4, [r3, #3]	@ zero_extendqisi2
 172 000e 02F06002 		and	r2, r2, #96
 173 0012 42EA9402 		orr	r2, r2, r4, lsr #2
 174 0016 4A70     		strb	r2, [r1, #1]
  59:Functions.c   ****     tobesentEEPROM[2] = ((( tobepacked[3]<<6 ) | ( tobepacked[2]>>2 ))& 0b11110000 )| ( tobepacked[
 175              		.loc 1 59 0
 176 0018 DA78     		ldrb	r2, [r3, #3]	@ zero_extendqisi2
 177 001a 9C78     		ldrb	r4, [r3, #2]	@ zero_extendqisi2
 178 001c 5D79     		ldrb	r5, [r3, #5]	@ zero_extendqisi2
 179 001e A408     		lsrs	r4, r4, #2
 180 0020 44EA8212 		orr	r2, r4, r2, lsl #6
 181 0024 22F00F02 		bic	r2, r2, #15
 182 0028 42EA1512 		orr	r2, r2, r5, lsr #4
 183 002c 8A70     		strb	r2, [r1, #2]
  60:Functions.c   ****     tobesentEEPROM[3] = ( tobepacked[5]<<4 ) | ( tobepacked[4]>>6 );
 184              		.loc 1 60 0
 185 002e 5C79     		ldrb	r4, [r3, #5]	@ zero_extendqisi2
 186 0030 1A79     		ldrb	r2, [r3, #4]	@ zero_extendqisi2
 187 0032 9209     		lsrs	r2, r2, #6
 188 0034 42EA0412 		orr	r2, r2, r4, lsl #4
 189 0038 CA70     		strb	r2, [r1, #3]
  61:Functions.c   ****     tobesentEEPROM[4] = tobepacked[6]; // Store MSB of temperature data
 190              		.loc 1 61 0
 191 003a 9A79     		ldrb	r2, [r3, #6]	@ zero_extendqisi2
 192 003c 0A71     		strb	r2, [r1, #4]
  62:Functions.c   ****     tobesentEEPROM[5] = tobepacked[7]; // Store LSB of temperature data
 193              		.loc 1 62 0
 194 003e DB79     		ldrb	r3, [r3, #7]	@ zero_extendqisi2
 195              	.LVL24:
 196 0040 4B71     		strb	r3, [r1, #5]
  63:Functions.c   ****     EEPROM_writePage(counter, (uint8_t*) tobesentEEPROM, DATA_BYTES_EEPROM);
 197              		.loc 1 63 0
 198 0042 0622     		movs	r2, #6
 199 0044 FFF7FEFF 		bl	EEPROM_writePage
 200              	.LVL25:
  64:Functions.c   ****     EEPROM_waitForWriteComplete();
 201              		.loc 1 64 0
 202 0048 FFF7FEFF 		bl	EEPROM_waitForWriteComplete
 203              	.LVL26:
 204 004c 38BD     		pop	{r3, r4, r5, pc}
 205              		.cfi_endproc
 206              	.LFE65:
 207              		.size	Store_EEPROM, .-Store_EEPROM
 208 004e 00BF     		.section	.text.Send_BCP,"ax",%progbits
 209              		.align	2
 210              		.global	Send_BCP
 211              		.thumb
 212              		.thumb_func
 213              		.type	Send_BCP, %function
 214              	Send_BCP:
 215              	.LFB66:
  65:Functions.c   ****     
  66:Functions.c   ****     
  67:Functions.c   **** //    EEPROM_readPage(counter, (uint8_t*) tobesentEEPROM, DATA_BYTES_EEPROM);
  68:Functions.c   **** //    sprintf(bufferUART, "** EEPROM Read = 0x%02x 0x%02x 0x%02x 0x%02x 0x%02x 0x%02x \r\n", tobese
  69:Functions.c   **** //    UART_1_PutBuffer;
  70:Functions.c   ****     
ARM GAS  C:\Users\Ilaria\AppData\Local\Temp\ccua2TMG.s 			page 6


  71:Functions.c   **** }
  72:Functions.c   **** 
  73:Functions.c   **** /*Sed to Bridge control panel*/
  74:Functions.c   **** void Send_BCP(uint8_t counter, uint8_t* tobedepacked, uint8_t* data_BCP)
  75:Functions.c   **** {       
 216              		.loc 1 75 0
 217              		.cfi_startproc
 218              		@ args = 0, pretend = 0, frame = 0
 219              		@ frame_needed = 0, uses_anonymous_args = 0
 220              	.LVL27:
 221 0000 38B5     		push	{r3, r4, r5, lr}
 222              		.cfi_def_cfa_offset 16
 223              		.cfi_offset 3, -16
 224              		.cfi_offset 4, -12
 225              		.cfi_offset 5, -8
 226              		.cfi_offset 14, -4
 227 0002 0D46     		mov	r5, r1
 228 0004 1446     		mov	r4, r2
  76:Functions.c   ****     EEPROM_readPage(counter, (uint8_t*) tobedepacked, DATA_BYTES_EEPROM);
 229              		.loc 1 76 0
 230 0006 0622     		movs	r2, #6
 231              	.LVL28:
 232 0008 FFF7FEFF 		bl	EEPROM_readPage
 233              	.LVL29:
  77:Functions.c   ****     
  78:Functions.c   ****     data_BCP[0] = HEADER; // Headerof buffer to send to Bridge Control Panel
 234              		.loc 1 78 0
 235 000c A023     		movs	r3, #160
 236 000e 2370     		strb	r3, [r4]
  79:Functions.c   ****         
  80:Functions.c   ****     data_BCP[1] = tobedepacked[0]; 
 237              		.loc 1 80 0
 238 0010 2B78     		ldrb	r3, [r5]	@ zero_extendqisi2
 239 0012 6370     		strb	r3, [r4, #1]
  81:Functions.c   ****     data_BCP[2] = tobedepacked[1] & 0b11000000;
 240              		.loc 1 81 0
 241 0014 6B78     		ldrb	r3, [r5, #1]	@ zero_extendqisi2
 242 0016 23F03F03 		bic	r3, r3, #63
 243 001a A370     		strb	r3, [r4, #2]
  82:Functions.c   ****     data_BCP[3] = ( tobedepacked[1] << 2 ) | ( tobedepacked[2] >> 6 );  
 244              		.loc 1 82 0
 245 001c 6A78     		ldrb	r2, [r5, #1]	@ zero_extendqisi2
 246 001e AB78     		ldrb	r3, [r5, #2]	@ zero_extendqisi2
 247 0020 9B09     		lsrs	r3, r3, #6
 248 0022 43EA8203 		orr	r3, r3, r2, lsl #2
 249 0026 E370     		strb	r3, [r4, #3]
  83:Functions.c   ****     data_BCP[4] = ( tobedepacked[2] << 2 ) & 0b11000000; 
 250              		.loc 1 83 0
 251 0028 AB78     		ldrb	r3, [r5, #2]	@ zero_extendqisi2
 252 002a 9B00     		lsls	r3, r3, #2
 253 002c 23F03F03 		bic	r3, r3, #63
 254 0030 2371     		strb	r3, [r4, #4]
  84:Functions.c   ****     data_BCP[5] = ( tobedepacked[2] << 4 ) | ((tobedepacked[3] >> 4 ) & (0b00001111));
 255              		.loc 1 84 0
 256 0032 AA78     		ldrb	r2, [r5, #2]	@ zero_extendqisi2
 257 0034 EB78     		ldrb	r3, [r5, #3]	@ zero_extendqisi2
 258 0036 1B09     		lsrs	r3, r3, #4
ARM GAS  C:\Users\Ilaria\AppData\Local\Temp\ccua2TMG.s 			page 7


 259 0038 43EA0213 		orr	r3, r3, r2, lsl #4
 260 003c 6371     		strb	r3, [r4, #5]
  85:Functions.c   ****     data_BCP[6] = ( tobedepacked[3] << 4 ) & 11110000;
 261              		.loc 1 85 0
 262 003e EB78     		ldrb	r3, [r5, #3]	@ zero_extendqisi2
 263 0040 1B01     		lsls	r3, r3, #4
 264 0042 03F07003 		and	r3, r3, #112
 265 0046 A371     		strb	r3, [r4, #6]
  86:Functions.c   ****     
  87:Functions.c   ****     data_BCP[7] = 0;//tobedepacked[4]; //MSB of temperature data
 266              		.loc 1 87 0
 267 0048 0023     		movs	r3, #0
 268 004a E371     		strb	r3, [r4, #7]
  88:Functions.c   ****     data_BCP[8] = 0;//tobedepacked[5]; //LSB of temperature data
 269              		.loc 1 88 0
 270 004c 2372     		strb	r3, [r4, #8]
  89:Functions.c   ****     
  90:Functions.c   ****     data_BCP[9] = TAIL; // Tail of buffer to send to Bridge Control Panel
 271              		.loc 1 90 0
 272 004e C023     		movs	r3, #192
 273 0050 6372     		strb	r3, [r4, #9]
 274 0052 38BD     		pop	{r3, r4, r5, pc}
 275              		.cfi_endproc
 276              	.LFE66:
 277              		.size	Send_BCP, .-Send_BCP
 278              		.section	.text.Config_acc,"ax",%progbits
 279              		.align	2
 280              		.global	Config_acc
 281              		.thumb
 282              		.thumb_func
 283              		.type	Config_acc, %function
 284              	Config_acc:
 285              	.LFB67:
  91:Functions.c   ****     
  92:Functions.c   **** //    UART_1_PutArray(data_BCP, TRANSMIT_BUFFER_SIZE);
  93:Functions.c   **** 
  94:Functions.c   **** }
  95:Functions.c   **** 
  96:Functions.c   **** 
  97:Functions.c   **** 
  98:Functions.c   **** /*Set ACCELEROMETER*/
  99:Functions.c   **** void Config_acc( uint8_t counter, uint8_t config, uint16_t address)
 100:Functions.c   **** {
 286              		.loc 1 100 0
 287              		.cfi_startproc
 288              		@ args = 0, pretend = 0, frame = 0
 289              		@ frame_needed = 0, uses_anonymous_args = 0
 290              	.LVL30:
 291 0000 38B5     		push	{r3, r4, r5, lr}
 292              		.cfi_def_cfa_offset 16
 293              		.cfi_offset 3, -16
 294              		.cfi_offset 4, -12
 295              		.cfi_offset 5, -8
 296              		.cfi_offset 14, -4
 297 0002 0D46     		mov	r5, r1
 298 0004 1446     		mov	r4, r2
 299              	.LVL31:
ARM GAS  C:\Users\Ilaria\AppData\Local\Temp\ccua2TMG.s 			page 8


 101:Functions.c   ****     int i = 0;
 102:Functions.c   ****     uint8_t zero_array[64] = {0};
 103:Functions.c   ****     
 104:Functions.c   **** //    for (i=0 ; i<counter - FIRST_DATA_ADDR; i+=64)
 105:Functions.c   **** //    {
 106:Functions.c   **** //        EEPROM_writePage((FIRST_DATA_ADDR), (uint8_t*) zero_array, MAX_BYTE_PAGE);
 107:Functions.c   **** //        EEPROM_waitForWriteComplete();
 108:Functions.c   **** //        UART_1_PutString("ERASE COMPLETED \r\n");
 109:Functions.c   **** //    }
 110:Functions.c   ****     // reset counter stooring data
 111:Functions.c   ****     
 112:Functions.c   ****     counter=FIRST_DATA_ADDR;
 113:Functions.c   ****     EEPROM_writeByte(COUNTER_AD, counter);
 300              		.loc 1 113 0
 301 0006 0421     		movs	r1, #4
 302              	.LVL32:
 303 0008 0320     		movs	r0, #3
 304 000a FFF7FEFF 		bl	EEPROM_writeByte
 305              	.LVL33:
 114:Functions.c   ****     EEPROM_waitForWriteComplete();   
 306              		.loc 1 114 0
 307 000e FFF7FEFF 		bl	EEPROM_waitForWriteComplete
 308              	.LVL34:
 115:Functions.c   ****     EEPROM_writeByte(address, config);
 309              		.loc 1 115 0
 310 0012 2946     		mov	r1, r5
 311 0014 2046     		mov	r0, r4
 312 0016 FFF7FEFF 		bl	EEPROM_writeByte
 313              	.LVL35:
 116:Functions.c   ****     EEPROM_waitForWriteComplete();
 314              		.loc 1 116 0
 315 001a FFF7FEFF 		bl	EEPROM_waitForWriteComplete
 316              	.LVL36:
 117:Functions.c   ****     
 118:Functions.c   ****     UART_1_PutString("New configuration set: 0x02X \r\n");
 317              		.loc 1 118 0
 318 001e 0248     		ldr	r0, .L11
 319 0020 FFF7FEFF 		bl	UART_1_PutString
 320              	.LVL37:
 321 0024 38BD     		pop	{r3, r4, r5, pc}
 322              	.L12:
 323 0026 00BF     		.align	2
 324              	.L11:
 325 0028 44030000 		.word	.LC12
 326              		.cfi_endproc
 327              	.LFE67:
 328              		.size	Config_acc, .-Config_acc
 329              		.comm	fifo_src_reg,1,1
 330              		.comm	counter,2,2
 331              		.comm	data_BCP,10,4
 332              		.comm	data_EE,6,4
 333              		.comm	datiAcc,8,4
 334              		.comm	count_wtm,4,4
 335              		.comm	value_temp,4,4
 336              		.comm	DataBuffer,10,4
 337              		.comm	SamplingFreqFlag,1,1
 338              		.comm	FSRFlag,1,1
ARM GAS  C:\Users\Ilaria\AppData\Local\Temp\ccua2TMG.s 			page 9


 339              		.comm	StartFlag,1,1
 340              		.comm	PacketReadyFlag,1,1
 341              		.comm	bufferUART,100,4
 342              		.section	.rodata.str1.4,"aMS",%progbits,1
 343              		.align	2
 344              	.LC0:
 345 0000 0D0A00   		.ascii	"\015\012\000"
 346 0003 00       		.space	1
 347              	.LC1:
 348 0004 2A2A2A2A 		.ascii	"*************************************** MENU' *****"
 348      2A2A2A2A 
 348      2A2A2A2A 
 348      2A2A2A2A 
 348      2A2A2A2A 
 349 0037 2A2A2A2A 		.ascii	"***************************************\015\012\000"
 349      2A2A2A2A 
 349      2A2A2A2A 
 349      2A2A2A2A 
 349      2A2A2A2A 
 350 0061 000000   		.space	3
 351              	.LC2:
 352 0064 2D2D2D2D 		.ascii	"---------------------------------------------------"
 352      2D2D2D2D 
 352      2D2D2D2D 
 352      2D2D2D2D 
 352      2D2D2D2D 
 353 0097 2D2D2D2D 		.ascii	"---------------------------------------\015\012\000"
 353      2D2D2D2D 
 353      2D2D2D2D 
 353      2D2D2D2D 
 353      2D2D2D2D 
 354 00c1 000000   		.space	3
 355              	.LC3:
 356 00c4 436F6D6D 		.ascii	"Command  | Result                  \015\012\000"
 356      616E6420 
 356      207C2052 
 356      6573756C 
 356      74202020 
 357 00ea 0000     		.space	2
 358              	.LC4:
 359 00ec 62202020 		.ascii	"b        | Start data acquisition from the accelero"
 359      20202020 
 359      207C2053 
 359      74617274 
 359      20646174 
 360 011f 6D657465 		.ascii	"meter and storage on the EEPROM memory \015\012\000"
 360      7220616E 
 360      64207374 
 360      6F726167 
 360      65206F6E 
 361 0149 000000   		.space	3
 362              	.LC5:
 363 014c 73202020 		.ascii	"s        | Stop data acquisition from the accelerom"
 363      20202020 
 363      207C2053 
 363      746F7020 
 363      64617461 
ARM GAS  C:\Users\Ilaria\AppData\Local\Temp\ccua2TMG.s 			page 10


 364 017f 65746572 		.ascii	"eter and storage on the EEPROM memory \015\012\000"
 364      20616E64 
 364      2073746F 
 364      72616765 
 364      206F6E20 
 365              	.LC6:
 366 01a8 66202020 		.ascii	"f        | Configuration of the accelerometer full "
 366      20202020 
 366      207C2043 
 366      6F6E6669 
 366      67757261 
 367 01db 7363616C 		.ascii	"scale range \015\012\000"
 367      65207261 
 367      6E676520 
 367      0D0A00
 368 01ea 0000     		.space	2
 369              	.LC7:
 370 01ec 70202020 		.ascii	"p        | Configuration of the accelerometer sampl"
 370      20202020 
 370      207C2043 
 370      6F6E6669 
 370      67757261 
 371 021f 696E6720 		.ascii	"ing frequency \015\012\000"
 371      66726571 
 371      75656E63 
 371      79200D0A 
 371      00
 372              	.LC8:
 373 0230 76202020 		.ascii	"v        | Start data visualization in the Bridge C"
 373      20202020 
 373      207C2053 
 373      74617274 
 373      20646174 
 374 0263 6F6E7472 		.ascii	"ontrol Panel \015\012\000"
 374      6F6C2050 
 374      616E656C 
 374      200D0A00 
 375 0273 00       		.space	1
 376              	.LC9:
 377 0274 75202020 		.ascii	"u        | Stop data visualization in the Bridge Co"
 377      20202020 
 377      207C2053 
 377      746F7020 
 377      64617461 
 378 02a7 6E74726F 		.ascii	"ntrol Panel \015\012\000"
 378      6C205061 
 378      6E656C20 
 378      0D0A00
 379 02b6 0000     		.space	2
 380              	.LC10:
 381 02b8 74202020 		.ascii	"t        | Store the temperature data \015\012\000"
 381      20202020 
 381      207C2053 
 381      746F7265 
 381      20746865 
 382 02e1 000000   		.space	3
 383              	.LC11:
ARM GAS  C:\Users\Ilaria\AppData\Local\Temp\ccua2TMG.s 			page 11


 384 02e4 2A2A2A2A 		.ascii	"***************************************************"
 384      2A2A2A2A 
 384      2A2A2A2A 
 384      2A2A2A2A 
 384      2A2A2A2A 
 385 0317 2A2A2A2A 		.ascii	"****************************************\015\012\000"
 385      2A2A2A2A 
 385      2A2A2A2A 
 385      2A2A2A2A 
 385      2A2A2A2A 
 386 0342 0000     		.space	2
 387              	.LC12:
 388 0344 4E657720 		.ascii	"New configuration set: 0x02X \015\012\000"
 388      636F6E66 
 388      69677572 
 388      6174696F 
 388      6E207365 
 389              		.text
 390              	.Letext0:
 391              		.file 2 "c:\\program files (x86)\\cypress\\psoc creator\\4.3\\psoc creator\\import\\gnu\\arm\\5.4.
 392              		.file 3 "c:\\program files (x86)\\cypress\\psoc creator\\4.3\\psoc creator\\import\\gnu\\arm\\5.4.
 393              		.file 4 "Generated_Source\\PSoC5/cytypes.h"
 394              		.file 5 "header.h"
 395              		.file 6 "Generated_Source\\PSoC5/core_cm3.h"
 396              		.file 7 "InterruptRoutines.h"
 397              		.file 8 "Generated_Source\\PSoC5/UART_1.h"
 398              		.file 9 "25LC256.h"