ARM GAS  C:\Users\Ilaria\AppData\Local\Temp\ccAQGcPD.s 			page 1


   1              		.syntax unified
   2              		.cpu cortex-m3
   3              		.fpu softvfp
   4              		.eabi_attribute 20, 1
   5              		.eabi_attribute 21, 1
   6              		.eabi_attribute 23, 3
   7              		.eabi_attribute 24, 1
   8              		.eabi_attribute 25, 1
   9              		.eabi_attribute 26, 1
  10              		.eabi_attribute 30, 1
  11              		.eabi_attribute 34, 1
  12              		.eabi_attribute 18, 4
  13              		.thumb
  14              		.syntax unified
  15              		.file	"InterruptRoutines.c"
  16              		.text
  17              	.Ltext0:
  18              		.cfi_sections	.debug_frame
  19              		.section	.text.Custom_isr_FIFO,"ax",%progbits
  20              		.align	2
  21              		.global	Custom_isr_FIFO
  22              		.thumb
  23              		.thumb_func
  24              		.type	Custom_isr_FIFO, %function
  25              	Custom_isr_FIFO:
  26              	.LFB64:
  27              		.file 1 "InterruptRoutines.c"
   1:InterruptRoutines.c **** /* ========================================
   2:InterruptRoutines.c ****  *
   3:InterruptRoutines.c ****  * Copyright YOUR COMPANY, THE YEAR
   4:InterruptRoutines.c ****  * All Rights Reserved
   5:InterruptRoutines.c ****  * UNPUBLISHED, LICENSED SOFTWARE.
   6:InterruptRoutines.c ****  *
   7:InterruptRoutines.c ****  * CONFIDENTIAL AND PROPRIETARY INFORMATION
   8:InterruptRoutines.c ****  * WHICH IS THE PROPERTY OF your company.
   9:InterruptRoutines.c ****  *
  10:InterruptRoutines.c ****  * ========================================
  11:InterruptRoutines.c **** */
  12:InterruptRoutines.c **** 
  13:InterruptRoutines.c **** 
  14:InterruptRoutines.c **** // ISR priorities are to be setted!!
  15:InterruptRoutines.c **** // io direi di mettere priorità maggiore nel isr_RX, però ditemi voi
  16:InterruptRoutines.c **** 
  17:InterruptRoutines.c **** 
  18:InterruptRoutines.c **** 
  19:InterruptRoutines.c **** 
  20:InterruptRoutines.c **** 
  21:InterruptRoutines.c **** // Include header
  22:InterruptRoutines.c **** #include "InterruptRoutines.h"
  23:InterruptRoutines.c **** #include "project.h"
  24:InterruptRoutines.c **** #include "LIS3DH.h"
  25:InterruptRoutines.c **** #include "Functions.h"
  26:InterruptRoutines.c **** 
  27:InterruptRoutines.c **** 
  28:InterruptRoutines.c **** // Variabile declaration
  29:InterruptRoutines.c **** uint8 ch_received;
  30:InterruptRoutines.c **** // uint8 StartFlag=0;
ARM GAS  C:\Users\Ilaria\AppData\Local\Temp\ccAQGcPD.s 			page 2


  31:InterruptRoutines.c **** // uint8 SelectionFlag=0;
  32:InterruptRoutines.c **** uint8 FSRFlag=0;
  33:InterruptRoutines.c **** uint8 SamplingFreqFlag=0;
  34:InterruptRoutines.c **** uint8 TemperatureMode=0;
  35:InterruptRoutines.c **** uint8 FahrenheitFlag=0;
  36:InterruptRoutines.c **** int   value_temp;
  37:InterruptRoutines.c **** int32 value_digit;
  38:InterruptRoutines.c **** int   value_mv; 
  39:InterruptRoutines.c **** 
  40:InterruptRoutines.c **** CY_ISR_PROTO (Custom_isr_FIFO)
  41:InterruptRoutines.c **** {
  28              		.loc 1 41 0
  29              		.cfi_startproc
  30              		@ args = 0, pretend = 0, frame = 0
  31              		@ frame_needed = 0, uses_anonymous_args = 0
  32              		@ link register save eliminated.
  33 0000 7047     		bx	lr
  34              		.cfi_endproc
  35              	.LFE64:
  36              		.size	Custom_isr_FIFO, .-Custom_isr_FIFO
  37 0002 00BF     		.section	.text.Custom_ISR_ADC,"ax",%progbits
  38              		.align	2
  39              		.global	Custom_ISR_ADC
  40              		.thumb
  41              		.thumb_func
  42              		.type	Custom_ISR_ADC, %function
  43              	Custom_ISR_ADC:
  44              	.LFB65:
  42:InterruptRoutines.c ****     /*Send data to EEPROM*/
  43:InterruptRoutines.c **** }
  44:InterruptRoutines.c **** 
  45:InterruptRoutines.c **** CY_ISR(Custom_ISR_ADC)
  46:InterruptRoutines.c **** {
  45              		.loc 1 46 0
  46              		.cfi_startproc
  47              		@ args = 0, pretend = 0, frame = 0
  48              		@ frame_needed = 0, uses_anonymous_args = 0
  49              		.loc 1 46 0
  50 0000 08B5     		push	{r3, lr}
  51              		.cfi_def_cfa_offset 8
  52              		.cfi_offset 3, -8
  53              		.cfi_offset 14, -4
  47:InterruptRoutines.c ****     /*Read Timer status register to bring interrupt line low*/
  48:InterruptRoutines.c ****     Timer_ReadStatusRegister();  
  54              		.loc 1 48 0
  55 0002 FFF7FEFF 		bl	Timer_ReadStatusRegister
  56              	.LVL0:
  49:InterruptRoutines.c ****     
  50:InterruptRoutines.c ****     if(TemperatureMode==1) // if Temperature mode command has been received on UART
  57              		.loc 1 50 0
  58 0006 194B     		ldr	r3, .L8
  59 0008 1B78     		ldrb	r3, [r3]	@ zero_extendqisi2
  60 000a 012B     		cmp	r3, #1
  61 000c 2DD1     		bne	.L2
  51:InterruptRoutines.c ****     {
  52:InterruptRoutines.c ****         value_digit=ADC_DelSig_Read32(); // Read value in ADC
  62              		.loc 1 52 0
ARM GAS  C:\Users\Ilaria\AppData\Local\Temp\ccAQGcPD.s 			page 3


  63 000e FFF7FEFF 		bl	ADC_DelSig_Read32
  64              	.LVL1:
  65 0012 174B     		ldr	r3, .L8+4
  66 0014 1860     		str	r0, [r3]
  53:InterruptRoutines.c ****     
  54:InterruptRoutines.c ****         if(value_digit<0)      value_digit=0;
  67              		.loc 1 54 0
  68 0016 0028     		cmp	r0, #0
  69 0018 01DA     		bge	.L4
  70              		.loc 1 54 0 is_stmt 0 discriminator 1
  71 001a 0022     		movs	r2, #0
  72 001c 1A60     		str	r2, [r3]
  73              	.L4:
  55:InterruptRoutines.c ****         if(value_digit>65535)  value_digit=65535;
  74              		.loc 1 55 0 is_stmt 1
  75 001e 144B     		ldr	r3, .L8+4
  76 0020 1B68     		ldr	r3, [r3]
  77 0022 B3F5803F 		cmp	r3, #65536
  78 0026 03DB     		blt	.L5
  79              		.loc 1 55 0 is_stmt 0 discriminator 1
  80 0028 4FF6FF72 		movw	r2, #65535
  81 002c 104B     		ldr	r3, .L8+4
  82 002e 1A60     		str	r2, [r3]
  83              	.L5:
  56:InterruptRoutines.c ****         
  57:InterruptRoutines.c ****         DataBuffer[5]=value_digit>>8; // shift a dx di 8 bit --> MSB
  84              		.loc 1 57 0 is_stmt 1
  85 0030 0F4B     		ldr	r3, .L8+4
  86 0032 1868     		ldr	r0, [r3]
  87 0034 0212     		asrs	r2, r0, #8
  88 0036 0F4B     		ldr	r3, .L8+8
  89 0038 5A71     		strb	r2, [r3, #5]
  58:InterruptRoutines.c ****         DataBuffer[6]=value_digit & 0xFF; // & bit a bit --> LSB
  90              		.loc 1 58 0
  91 003a 9871     		strb	r0, [r3, #6]
  59:InterruptRoutines.c ****         
  60:InterruptRoutines.c ****         value_mv=ADC_DelSig_CountsTo_mVolts(value_digit);
  92              		.loc 1 60 0
  93 003c FFF7FEFF 		bl	ADC_DelSig_CountsTo_mVolts
  94              	.LVL2:
  95 0040 0D4B     		ldr	r3, .L8+12
  96 0042 1860     		str	r0, [r3]
  61:InterruptRoutines.c ****         //value_temp= ; // Temperature in Celsius
  62:InterruptRoutines.c ****         if(FahrenheitFlag==1)
  97              		.loc 1 62 0
  98 0044 094B     		ldr	r3, .L8
  99 0046 5B78     		ldrb	r3, [r3, #1]	@ zero_extendqisi2
 100 0048 012B     		cmp	r3, #1
 101 004a 0BD1     		bne	.L6
  63:InterruptRoutines.c ****         {
  64:InterruptRoutines.c ****             value_temp= value_temp * 9/5 + 32; // Temperature in Fahrenheit
 102              		.loc 1 64 0
 103 004c 0B49     		ldr	r1, .L8+16
 104 004e 0B68     		ldr	r3, [r1]
 105 0050 03EBC303 		add	r3, r3, r3, lsl #3
 106 0054 0A4A     		ldr	r2, .L8+20
 107 0056 82FB0302 		smull	r0, r2, r2, r3
ARM GAS  C:\Users\Ilaria\AppData\Local\Temp\ccAQGcPD.s 			page 4


 108 005a DB17     		asrs	r3, r3, #31
 109 005c C3EB6203 		rsb	r3, r3, r2, asr #1
 110 0060 2033     		adds	r3, r3, #32
 111 0062 0B60     		str	r3, [r1]
 112              	.L6:
  65:InterruptRoutines.c ****         }
  66:InterruptRoutines.c ****         
  67:InterruptRoutines.c ****         PacketReadyFlag=1;
 113              		.loc 1 67 0
 114 0064 0122     		movs	r2, #1
 115 0066 074B     		ldr	r3, .L8+24
 116 0068 1A70     		strb	r2, [r3]
 117              	.L2:
 118 006a 08BD     		pop	{r3, pc}
 119              	.L9:
 120              		.align	2
 121              	.L8:
 122 006c 00000000 		.word	.LANCHOR0
 123 0070 00000000 		.word	value_digit
 124 0074 00000000 		.word	DataBuffer
 125 0078 00000000 		.word	value_mv
 126 007c 00000000 		.word	value_temp
 127 0080 67666666 		.word	1717986919
 128 0084 00000000 		.word	PacketReadyFlag
 129              		.cfi_endproc
 130              	.LFE65:
 131              		.size	Custom_ISR_ADC, .-Custom_ISR_ADC
 132              		.section	.text.Custom_ISR_RX,"ax",%progbits
 133              		.align	2
 134              		.global	Custom_ISR_RX
 135              		.thumb
 136              		.thumb_func
 137              		.type	Custom_ISR_RX, %function
 138              	Custom_ISR_RX:
 139              	.LFB66:
  68:InterruptRoutines.c ****     }
  69:InterruptRoutines.c **** }
  70:InterruptRoutines.c **** 
  71:InterruptRoutines.c **** CY_ISR(Custom_ISR_RX)
  72:InterruptRoutines.c **** {
 140              		.loc 1 72 0
 141              		.cfi_startproc
 142              		@ args = 0, pretend = 0, frame = 0
 143              		@ frame_needed = 0, uses_anonymous_args = 0
 144 0000 08B5     		push	{r3, lr}
 145              		.cfi_def_cfa_offset 8
 146              		.cfi_offset 3, -8
 147              		.cfi_offset 14, -4
  73:InterruptRoutines.c ****     ch_received=UART_1_GetChar();
 148              		.loc 1 73 0
 149 0002 FFF7FEFF 		bl	UART_1_GetChar
 150              	.LVL3:
 151 0006 A44B     		ldr	r3, .L44
 152 0008 1870     		strb	r0, [r3]
  74:InterruptRoutines.c ****     switch (ch_received)
 153              		.loc 1 74 0
 154 000a 3138     		subs	r0, r0, #49
ARM GAS  C:\Users\Ilaria\AppData\Local\Temp\ccAQGcPD.s 			page 5


 155 000c 4328     		cmp	r0, #67
 156 000e 00F27F81 		bhi	.L10
 157 0012 DFE810F0 		tbh	[pc, r0, lsl #1]
 158              	.L13:
 159 0016 7900     		.2byte	(.L12-.L13)/2
 160 0018 AB00     		.2byte	(.L14-.L13)/2
 161 001a DD00     		.2byte	(.L15-.L13)/2
 162 001c 0F01     		.2byte	(.L16-.L13)/2
 163 001e 7D01     		.2byte	(.L10-.L13)/2
 164 0020 7D01     		.2byte	(.L10-.L13)/2
 165 0022 7D01     		.2byte	(.L10-.L13)/2
 166 0024 7D01     		.2byte	(.L10-.L13)/2
 167 0026 7D01     		.2byte	(.L10-.L13)/2
 168 0028 7D01     		.2byte	(.L10-.L13)/2
 169 002a 7D01     		.2byte	(.L10-.L13)/2
 170 002c 7D01     		.2byte	(.L10-.L13)/2
 171 002e 7D01     		.2byte	(.L10-.L13)/2
 172 0030 7D01     		.2byte	(.L10-.L13)/2
 173 0032 4400     		.2byte	(.L17-.L13)/2
 174 0034 7D01     		.2byte	(.L10-.L13)/2
 175 0036 7D01     		.2byte	(.L10-.L13)/2
 176 0038 7D01     		.2byte	(.L10-.L13)/2
 177 003a 7601     		.2byte	(.L18-.L13)/2
 178 003c 7D01     		.2byte	(.L10-.L13)/2
 179 003e 7D01     		.2byte	(.L10-.L13)/2
 180 0040 4700     		.2byte	(.L19-.L13)/2
 181 0042 7D01     		.2byte	(.L10-.L13)/2
 182 0044 7D01     		.2byte	(.L10-.L13)/2
 183 0046 7D01     		.2byte	(.L10-.L13)/2
 184 0048 7D01     		.2byte	(.L10-.L13)/2
 185 004a 7D01     		.2byte	(.L10-.L13)/2
 186 004c 7D01     		.2byte	(.L10-.L13)/2
 187 004e 7D01     		.2byte	(.L10-.L13)/2
 188 0050 7D01     		.2byte	(.L10-.L13)/2
 189 0052 7D01     		.2byte	(.L10-.L13)/2
 190 0054 6300     		.2byte	(.L20-.L13)/2
 191 0056 7D01     		.2byte	(.L10-.L13)/2
 192 0058 7D01     		.2byte	(.L10-.L13)/2
 193 005a 7D01     		.2byte	(.L10-.L13)/2
 194 005c 6101     		.2byte	(.L21-.L13)/2
 195 005e 7D01     		.2byte	(.L10-.L13)/2
 196 0060 7D01     		.2byte	(.L10-.L13)/2
 197 0062 7D01     		.2byte	(.L10-.L13)/2
 198 0064 7D01     		.2byte	(.L10-.L13)/2
 199 0066 7D01     		.2byte	(.L10-.L13)/2
 200 0068 7D01     		.2byte	(.L10-.L13)/2
 201 006a 7D01     		.2byte	(.L10-.L13)/2
 202 006c 7D01     		.2byte	(.L10-.L13)/2
 203 006e 7D01     		.2byte	(.L10-.L13)/2
 204 0070 7D01     		.2byte	(.L10-.L13)/2
 205 0072 7D01     		.2byte	(.L10-.L13)/2
 206 0074 7D01     		.2byte	(.L10-.L13)/2
 207 0076 7D01     		.2byte	(.L10-.L13)/2
 208 0078 7D01     		.2byte	(.L10-.L13)/2
 209 007a 7601     		.2byte	(.L18-.L13)/2
 210 007c 7D01     		.2byte	(.L10-.L13)/2
 211 007e 7D01     		.2byte	(.L10-.L13)/2
ARM GAS  C:\Users\Ilaria\AppData\Local\Temp\ccAQGcPD.s 			page 6


 212 0080 4700     		.2byte	(.L19-.L13)/2
 213 0082 7D01     		.2byte	(.L10-.L13)/2
 214 0084 7D01     		.2byte	(.L10-.L13)/2
 215 0086 7D01     		.2byte	(.L10-.L13)/2
 216 0088 7D01     		.2byte	(.L10-.L13)/2
 217 008a 7D01     		.2byte	(.L10-.L13)/2
 218 008c 7D01     		.2byte	(.L10-.L13)/2
 219 008e 7D01     		.2byte	(.L10-.L13)/2
 220 0090 7D01     		.2byte	(.L10-.L13)/2
 221 0092 7D01     		.2byte	(.L10-.L13)/2
 222 0094 6300     		.2byte	(.L20-.L13)/2
 223 0096 7D01     		.2byte	(.L10-.L13)/2
 224 0098 7D01     		.2byte	(.L10-.L13)/2
 225 009a 7D01     		.2byte	(.L10-.L13)/2
 226 009c 6101     		.2byte	(.L21-.L13)/2
 227              		.p2align 1
 228              	.L17:
  75:InterruptRoutines.c ****     {
  76:InterruptRoutines.c ****         // ? command on UART: show the menù
  77:InterruptRoutines.c ****         case '?':
  78:InterruptRoutines.c ****             show_menu();
 229              		.loc 1 78 0
 230 009e FFF7FEFF 		bl	show_menu
 231              	.LVL4:
  79:InterruptRoutines.c ****         break;
 232              		.loc 1 79 0
 233 00a2 08BD     		pop	{r3, pc}
 234              	.L19:
  80:InterruptRoutines.c ****             
  81:InterruptRoutines.c ****         // ON command on UART
  82:InterruptRoutines.c ****         case 'B':
  83:InterruptRoutines.c ****         case 'b':
  84:InterruptRoutines.c ****             
  85:InterruptRoutines.c ****             // StartFlag=1;
  86:InterruptRoutines.c ****             // Start data acquisition from the accelerometer
  87:InterruptRoutines.c ****             // Start data storage on the EEPROM
  88:InterruptRoutines.c ****             // Save the configuration on the EEPROM
  89:InterruptRoutines.c ****           
  90:InterruptRoutines.c ****         break;
  91:InterruptRoutines.c ****             
  92:InterruptRoutines.c ****         // OFF command on UART
  93:InterruptRoutines.c ****         case 'S':
  94:InterruptRoutines.c ****         case 's':
  95:InterruptRoutines.c ****             
  96:InterruptRoutines.c ****             // StartFlag=0;
  97:InterruptRoutines.c ****             // Stop data acquisition from the accelerometer
  98:InterruptRoutines.c ****             // Stop data storage on the EEPROM
  99:InterruptRoutines.c ****             // Save the configuration on the EEPROM
 100:InterruptRoutines.c ****            
 101:InterruptRoutines.c ****         break;
 102:InterruptRoutines.c ****             
 103:InterruptRoutines.c ****         case 'F':
 104:InterruptRoutines.c ****         case 'f':
 105:InterruptRoutines.c ****             // Selection full scale range command on UART
 106:InterruptRoutines.c ****             /* SHOW FSR MENU' ON UART*/
 107:InterruptRoutines.c ****             UART_1_PutString("Configuration of the accelerometer full scale range \r\n");
 235              		.loc 1 107 0
ARM GAS  C:\Users\Ilaria\AppData\Local\Temp\ccAQGcPD.s 			page 7


 236 00a4 7D48     		ldr	r0, .L44+4
 237 00a6 FFF7FEFF 		bl	UART_1_PutString
 238              	.LVL5:
 108:InterruptRoutines.c ****             UART_1_PutString("Character            Full scale range \r\n");
 239              		.loc 1 108 0
 240 00aa 7D48     		ldr	r0, .L44+8
 241 00ac FFF7FEFF 		bl	UART_1_PutString
 242              	.LVL6:
 109:InterruptRoutines.c ****             UART_1_PutString("1                    +- 2g \r\n");
 243              		.loc 1 109 0
 244 00b0 7C48     		ldr	r0, .L44+12
 245 00b2 FFF7FEFF 		bl	UART_1_PutString
 246              	.LVL7:
 110:InterruptRoutines.c ****             UART_1_PutString("2                    +- 4g \r\n");
 247              		.loc 1 110 0
 248 00b6 7C48     		ldr	r0, .L44+16
 249 00b8 FFF7FEFF 		bl	UART_1_PutString
 250              	.LVL8:
 111:InterruptRoutines.c ****             UART_1_PutString("3                    +- 8g \r\n");
 251              		.loc 1 111 0
 252 00bc 7B48     		ldr	r0, .L44+20
 253 00be FFF7FEFF 		bl	UART_1_PutString
 254              	.LVL9:
 112:InterruptRoutines.c ****             UART_1_PutString("4                    +- 16g \r\n");
 255              		.loc 1 112 0
 256 00c2 7B48     		ldr	r0, .L44+24
 257 00c4 FFF7FEFF 		bl	UART_1_PutString
 258              	.LVL10:
 113:InterruptRoutines.c ****             FSRFlag=1;
 259              		.loc 1 113 0
 260 00c8 7A4B     		ldr	r3, .L44+28
 261 00ca 0122     		movs	r2, #1
 262 00cc 9A70     		strb	r2, [r3, #2]
 114:InterruptRoutines.c ****          
 115:InterruptRoutines.c ****             // Temperature in Fahrenheit command on UART
 116:InterruptRoutines.c ****             if (TemperatureMode==1)
 263              		.loc 1 116 0
 264 00ce 1B78     		ldrb	r3, [r3]	@ zero_extendqisi2
 265 00d0 9342     		cmp	r3, r2
 266 00d2 40F01D81 		bne	.L10
 117:InterruptRoutines.c ****             {
 118:InterruptRoutines.c ****                 FahrenheitFlag=1;
 267              		.loc 1 118 0
 268 00d6 774B     		ldr	r3, .L44+28
 269 00d8 5A70     		strb	r2, [r3, #1]
 270 00da 08BD     		pop	{r3, pc}
 271              	.L20:
 119:InterruptRoutines.c ****             }
 120:InterruptRoutines.c ****         break;
 121:InterruptRoutines.c ****             
 122:InterruptRoutines.c ****         // Selection sampling frequency command on UART
 123:InterruptRoutines.c ****         case 'P':
 124:InterruptRoutines.c ****         case 'p':
 125:InterruptRoutines.c ****             /* SHOW SAMPLING FREQUENCY MENU' ON UART*/
 126:InterruptRoutines.c ****             UART_1_PutString("Configuration of the accelerometer sampling frequency \r\n");
 272              		.loc 1 126 0
 273 00dc 7648     		ldr	r0, .L44+32
ARM GAS  C:\Users\Ilaria\AppData\Local\Temp\ccAQGcPD.s 			page 8


 274 00de FFF7FEFF 		bl	UART_1_PutString
 275              	.LVL11:
 127:InterruptRoutines.c ****             UART_1_PutString("Character            Sampling Frequency \r\n");
 276              		.loc 1 127 0
 277 00e2 7648     		ldr	r0, .L44+36
 278 00e4 FFF7FEFF 		bl	UART_1_PutString
 279              	.LVL12:
 128:InterruptRoutines.c ****             UART_1_PutString("1                    1Hz \r\n");
 280              		.loc 1 128 0
 281 00e8 7548     		ldr	r0, .L44+40
 282 00ea FFF7FEFF 		bl	UART_1_PutString
 283              	.LVL13:
 129:InterruptRoutines.c ****             UART_1_PutString("2                    10Hz \r\n");
 284              		.loc 1 129 0
 285 00ee 7548     		ldr	r0, .L44+44
 286 00f0 FFF7FEFF 		bl	UART_1_PutString
 287              	.LVL14:
 130:InterruptRoutines.c ****             UART_1_PutString("3                    25Hz \r\n");
 288              		.loc 1 130 0
 289 00f4 7448     		ldr	r0, .L44+48
 290 00f6 FFF7FEFF 		bl	UART_1_PutString
 291              	.LVL15:
 131:InterruptRoutines.c ****             UART_1_PutString("4                    50Hz \r\n");
 292              		.loc 1 131 0
 293 00fa 7448     		ldr	r0, .L44+52
 294 00fc FFF7FEFF 		bl	UART_1_PutString
 295              	.LVL16:
 132:InterruptRoutines.c ****             SamplingFreqFlag=1;
 296              		.loc 1 132 0
 297 0100 0122     		movs	r2, #1
 298 0102 6C4B     		ldr	r3, .L44+28
 299 0104 DA70     		strb	r2, [r3, #3]
 133:InterruptRoutines.c ****               
 134:InterruptRoutines.c ****         break;
 300              		.loc 1 134 0
 301 0106 08BD     		pop	{r3, pc}
 302              	.L12:
 135:InterruptRoutines.c ****             
 136:InterruptRoutines.c ****         // 1 command on UART
 137:InterruptRoutines.c ****         case '1':
 138:InterruptRoutines.c ****             if (FSRFlag==1) // +- 2g
 303              		.loc 1 138 0
 304 0108 6A4B     		ldr	r3, .L44+28
 305 010a 9B78     		ldrb	r3, [r3, #2]	@ zero_extendqisi2
 306 010c 012B     		cmp	r3, #1
 307 010e 13D1     		bne	.L22
 139:InterruptRoutines.c ****             {
 140:InterruptRoutines.c ****                 // Read register
 141:InterruptRoutines.c ****                 // communicate on UART if this FSR is already setted
 142:InterruptRoutines.c ****                 if ( ACC_readRegister(LIS3DH_CTRL_REG4) & LIS3DH_CTRL_REG4_FSR_2 )
 308              		.loc 1 142 0
 309 0110 2320     		movs	r0, #35
 310 0112 FFF7FEFF 		bl	ACC_readRegister
 311              	.LVL17:
 312 0116 10F0800F 		tst	r0, #128
 313 011a 03D0     		beq	.L23
 143:InterruptRoutines.c ****                 {
ARM GAS  C:\Users\Ilaria\AppData\Local\Temp\ccAQGcPD.s 			page 9


 144:InterruptRoutines.c ****                    UART_1_PutString("The selected option was already been setted \r\n");
 314              		.loc 1 144 0
 315 011c 6C48     		ldr	r0, .L44+56
 316 011e FFF7FEFF 		bl	UART_1_PutString
 317              	.LVL18:
 318 0122 06E0     		b	.L24
 319              	.L23:
 145:InterruptRoutines.c ****                 }
 146:InterruptRoutines.c ****                 // if not write the new FSR + communicate on UART the change
 147:InterruptRoutines.c ****                 else 
 148:InterruptRoutines.c ****                 {
 149:InterruptRoutines.c ****                     ACC_writeRegister(LIS3DH_CTRL_REG4,LIS3DH_CTRL_REG4_FSR_2);
 320              		.loc 1 149 0
 321 0124 8021     		movs	r1, #128
 322 0126 2320     		movs	r0, #35
 323 0128 FFF7FEFF 		bl	ACC_writeRegister
 324              	.LVL19:
 150:InterruptRoutines.c ****                     UART_1_PutString("The change was successful \r\n");
 325              		.loc 1 150 0
 326 012c 6948     		ldr	r0, .L44+60
 327 012e FFF7FEFF 		bl	UART_1_PutString
 328              	.LVL20:
 329              	.L24:
 151:InterruptRoutines.c ****                 }
 152:InterruptRoutines.c ****                 
 153:InterruptRoutines.c ****                 // delate previous data in EEPROM + reset counter stooring data
 154:InterruptRoutines.c ****                 // save new configuration in EEPROM memory
 155:InterruptRoutines.c ****                 FSRFlag=0; 
 330              		.loc 1 155 0
 331 0132 0022     		movs	r2, #0
 332 0134 5F4B     		ldr	r3, .L44+28
 333 0136 9A70     		strb	r2, [r3, #2]
 334              	.L22:
 156:InterruptRoutines.c ****             }
 157:InterruptRoutines.c ****             if (SamplingFreqFlag==1) // 1Hz
 335              		.loc 1 157 0
 336 0138 5E4B     		ldr	r3, .L44+28
 337 013a DB78     		ldrb	r3, [r3, #3]	@ zero_extendqisi2
 338 013c 012B     		cmp	r3, #1
 339 013e 40F0E780 		bne	.L10
 158:InterruptRoutines.c ****             {
 159:InterruptRoutines.c ****                 // Read register
 160:InterruptRoutines.c ****                 // communicate on UART if this freq is already setted
 161:InterruptRoutines.c ****                 if ( ACC_readRegister(LIS3DH_CTRL_REG1) & LIS3DH_CTRL_REG1_ODR_START_1HZ )
 340              		.loc 1 161 0
 341 0142 2020     		movs	r0, #32
 342 0144 FFF7FEFF 		bl	ACC_readRegister
 343              	.LVL21:
 344 0148 10F0170F 		tst	r0, #23
 345 014c 03D0     		beq	.L25
 162:InterruptRoutines.c ****                 {
 163:InterruptRoutines.c ****                    UART_1_PutString("The selected option was already been setted \r\n");
 346              		.loc 1 163 0
 347 014e 6048     		ldr	r0, .L44+56
 348 0150 FFF7FEFF 		bl	UART_1_PutString
 349              	.LVL22:
 350 0154 06E0     		b	.L26
ARM GAS  C:\Users\Ilaria\AppData\Local\Temp\ccAQGcPD.s 			page 10


 351              	.L25:
 164:InterruptRoutines.c ****                 }
 165:InterruptRoutines.c ****                 // if not write the new freq + communicate on UART the change
 166:InterruptRoutines.c ****                 else
 167:InterruptRoutines.c ****                 {
 168:InterruptRoutines.c ****                     ACC_writeRegister(LIS3DH_CTRL_REG1,LIS3DH_CTRL_REG1_ODR_START_1HZ);
 352              		.loc 1 168 0
 353 0156 1721     		movs	r1, #23
 354 0158 2020     		movs	r0, #32
 355 015a FFF7FEFF 		bl	ACC_writeRegister
 356              	.LVL23:
 169:InterruptRoutines.c ****                     UART_1_PutString("The change was successful \r\n");
 357              		.loc 1 169 0
 358 015e 5D48     		ldr	r0, .L44+60
 359 0160 FFF7FEFF 		bl	UART_1_PutString
 360              	.LVL24:
 361              	.L26:
 170:InterruptRoutines.c ****                 }
 171:InterruptRoutines.c ****                 
 172:InterruptRoutines.c ****                 // delate previous data in EEPROM + reset counter stooring data
 173:InterruptRoutines.c ****                 // save new configuration in EEPROM memory
 174:InterruptRoutines.c ****                 SamplingFreqFlag=0;
 362              		.loc 1 174 0
 363 0164 0022     		movs	r2, #0
 364 0166 534B     		ldr	r3, .L44+28
 365 0168 DA70     		strb	r2, [r3, #3]
 366 016a 08BD     		pop	{r3, pc}
 367              	.L14:
 175:InterruptRoutines.c ****             }
 176:InterruptRoutines.c ****         break;
 177:InterruptRoutines.c ****             
 178:InterruptRoutines.c ****         // 2 command on UART
 179:InterruptRoutines.c ****         case '2':
 180:InterruptRoutines.c ****             if (FSRFlag==1) // +- 4g
 368              		.loc 1 180 0
 369 016c 514B     		ldr	r3, .L44+28
 370 016e 9B78     		ldrb	r3, [r3, #2]	@ zero_extendqisi2
 371 0170 012B     		cmp	r3, #1
 372 0172 13D1     		bne	.L27
 181:InterruptRoutines.c ****             {
 182:InterruptRoutines.c ****                 // Read register
 183:InterruptRoutines.c ****                 // communicate on UART if this FSR is already setted
 184:InterruptRoutines.c ****                 if ( ACC_readRegister(LIS3DH_CTRL_REG4) & LIS3DH_CTRL_REG4_FSR_4 )
 373              		.loc 1 184 0
 374 0174 2320     		movs	r0, #35
 375 0176 FFF7FEFF 		bl	ACC_readRegister
 376              	.LVL25:
 377 017a 10F0900F 		tst	r0, #144
 378 017e 03D0     		beq	.L28
 185:InterruptRoutines.c ****                 {
 186:InterruptRoutines.c ****                    UART_1_PutString("The selected option was already been setted \r\n");
 379              		.loc 1 186 0
 380 0180 5348     		ldr	r0, .L44+56
 381 0182 FFF7FEFF 		bl	UART_1_PutString
 382              	.LVL26:
 383 0186 06E0     		b	.L29
 384              	.L28:
ARM GAS  C:\Users\Ilaria\AppData\Local\Temp\ccAQGcPD.s 			page 11


 187:InterruptRoutines.c ****                 }
 188:InterruptRoutines.c ****                 // if not write the new FSR + communicate on UART the change
 189:InterruptRoutines.c ****                 else 
 190:InterruptRoutines.c ****                 {
 191:InterruptRoutines.c ****                     ACC_writeRegister(LIS3DH_CTRL_REG4,LIS3DH_CTRL_REG4_FSR_4);
 385              		.loc 1 191 0
 386 0188 9021     		movs	r1, #144
 387 018a 2320     		movs	r0, #35
 388 018c FFF7FEFF 		bl	ACC_writeRegister
 389              	.LVL27:
 192:InterruptRoutines.c ****                     UART_1_PutString("The change was successful \r\n");
 390              		.loc 1 192 0
 391 0190 5048     		ldr	r0, .L44+60
 392 0192 FFF7FEFF 		bl	UART_1_PutString
 393              	.LVL28:
 394              	.L29:
 193:InterruptRoutines.c ****                 }
 194:InterruptRoutines.c ****                 
 195:InterruptRoutines.c ****                 // delate previous data in EEPROM + reset counter stooring data
 196:InterruptRoutines.c ****                 // save new configuration in EEPROM memory
 197:InterruptRoutines.c ****                 FSRFlag=0; 
 395              		.loc 1 197 0
 396 0196 0022     		movs	r2, #0
 397 0198 464B     		ldr	r3, .L44+28
 398 019a 9A70     		strb	r2, [r3, #2]
 399              	.L27:
 198:InterruptRoutines.c ****             }
 199:InterruptRoutines.c ****             if (SamplingFreqFlag==1) // 10Hz
 400              		.loc 1 199 0
 401 019c 454B     		ldr	r3, .L44+28
 402 019e DB78     		ldrb	r3, [r3, #3]	@ zero_extendqisi2
 403 01a0 012B     		cmp	r3, #1
 404 01a2 40F0B580 		bne	.L10
 200:InterruptRoutines.c ****             {
 201:InterruptRoutines.c ****                 // Read register
 202:InterruptRoutines.c ****                 // communicate on UART if this freq is already setted
 203:InterruptRoutines.c ****                 if ( ACC_readRegister(LIS3DH_CTRL_REG1) & LIS3DH_CTRL_REG1_ODR_START_10HZ )
 405              		.loc 1 203 0
 406 01a6 2020     		movs	r0, #32
 407 01a8 FFF7FEFF 		bl	ACC_readRegister
 408              	.LVL29:
 409 01ac 10F0270F 		tst	r0, #39
 410 01b0 03D0     		beq	.L30
 204:InterruptRoutines.c ****                 {
 205:InterruptRoutines.c ****                    UART_1_PutString("The selected option was already been setted \r\n");
 411              		.loc 1 205 0
 412 01b2 4748     		ldr	r0, .L44+56
 413 01b4 FFF7FEFF 		bl	UART_1_PutString
 414              	.LVL30:
 415 01b8 06E0     		b	.L31
 416              	.L30:
 206:InterruptRoutines.c ****                 }
 207:InterruptRoutines.c ****                 // if not write the new freq + communicate on UART the change
 208:InterruptRoutines.c ****                 else
 209:InterruptRoutines.c ****                 {
 210:InterruptRoutines.c ****                     ACC_writeRegister(LIS3DH_CTRL_REG1,LIS3DH_CTRL_REG1_ODR_START_10HZ);
 417              		.loc 1 210 0
ARM GAS  C:\Users\Ilaria\AppData\Local\Temp\ccAQGcPD.s 			page 12


 418 01ba 2721     		movs	r1, #39
 419 01bc 2020     		movs	r0, #32
 420 01be FFF7FEFF 		bl	ACC_writeRegister
 421              	.LVL31:
 211:InterruptRoutines.c ****                     UART_1_PutString("The change was successful \r\n");
 422              		.loc 1 211 0
 423 01c2 4448     		ldr	r0, .L44+60
 424 01c4 FFF7FEFF 		bl	UART_1_PutString
 425              	.LVL32:
 426              	.L31:
 212:InterruptRoutines.c ****                 }
 213:InterruptRoutines.c ****                 
 214:InterruptRoutines.c ****                 // delate previous data in EEPROM + reset counter stooring data
 215:InterruptRoutines.c ****                 // save new configuration in EEPROM memory
 216:InterruptRoutines.c ****                 SamplingFreqFlag=0;
 427              		.loc 1 216 0
 428 01c8 0022     		movs	r2, #0
 429 01ca 3A4B     		ldr	r3, .L44+28
 430 01cc DA70     		strb	r2, [r3, #3]
 431 01ce 08BD     		pop	{r3, pc}
 432              	.L15:
 217:InterruptRoutines.c ****             }
 218:InterruptRoutines.c ****         break;
 219:InterruptRoutines.c ****             
 220:InterruptRoutines.c ****         // 3 command on UART
 221:InterruptRoutines.c ****         case '3':
 222:InterruptRoutines.c ****             if (FSRFlag==1) // +- 8g
 433              		.loc 1 222 0
 434 01d0 384B     		ldr	r3, .L44+28
 435 01d2 9B78     		ldrb	r3, [r3, #2]	@ zero_extendqisi2
 436 01d4 012B     		cmp	r3, #1
 437 01d6 13D1     		bne	.L32
 223:InterruptRoutines.c ****             {
 224:InterruptRoutines.c ****                 // Read register
 225:InterruptRoutines.c ****                 // communicate on UART if this FSR is already setted
 226:InterruptRoutines.c ****                 if ( ACC_readRegister(LIS3DH_CTRL_REG4) & LIS3DH_CTRL_REG4_FSR_8 )
 438              		.loc 1 226 0
 439 01d8 2320     		movs	r0, #35
 440 01da FFF7FEFF 		bl	ACC_readRegister
 441              	.LVL33:
 442 01de 10F0A00F 		tst	r0, #160
 443 01e2 03D0     		beq	.L33
 227:InterruptRoutines.c ****                 {
 228:InterruptRoutines.c ****                    UART_1_PutString("The selected option was already been setted \r\n");
 444              		.loc 1 228 0
 445 01e4 3A48     		ldr	r0, .L44+56
 446 01e6 FFF7FEFF 		bl	UART_1_PutString
 447              	.LVL34:
 448 01ea 06E0     		b	.L34
 449              	.L33:
 229:InterruptRoutines.c ****                 }
 230:InterruptRoutines.c ****                 // if not write the new FSR + communicate on UART the change
 231:InterruptRoutines.c ****                 else 
 232:InterruptRoutines.c ****                 {
 233:InterruptRoutines.c ****                     ACC_writeRegister(LIS3DH_CTRL_REG4,LIS3DH_CTRL_REG4_FSR_8);
 450              		.loc 1 233 0
 451 01ec A021     		movs	r1, #160
ARM GAS  C:\Users\Ilaria\AppData\Local\Temp\ccAQGcPD.s 			page 13


 452 01ee 2320     		movs	r0, #35
 453 01f0 FFF7FEFF 		bl	ACC_writeRegister
 454              	.LVL35:
 234:InterruptRoutines.c ****                      UART_1_PutString("The change was successful \r\n");
 455              		.loc 1 234 0
 456 01f4 3748     		ldr	r0, .L44+60
 457 01f6 FFF7FEFF 		bl	UART_1_PutString
 458              	.LVL36:
 459              	.L34:
 235:InterruptRoutines.c ****                 }
 236:InterruptRoutines.c ****                 
 237:InterruptRoutines.c ****                 // delate previous data in EEPROM + reset counter stooring data
 238:InterruptRoutines.c ****                 // save new configuration in EEPROM memory
 239:InterruptRoutines.c ****                 FSRFlag=0; 
 460              		.loc 1 239 0
 461 01fa 0022     		movs	r2, #0
 462 01fc 2D4B     		ldr	r3, .L44+28
 463 01fe 9A70     		strb	r2, [r3, #2]
 464              	.L32:
 240:InterruptRoutines.c ****             }
 241:InterruptRoutines.c ****             if (SamplingFreqFlag==1) // 25Hz
 465              		.loc 1 241 0
 466 0200 2C4B     		ldr	r3, .L44+28
 467 0202 DB78     		ldrb	r3, [r3, #3]	@ zero_extendqisi2
 468 0204 012B     		cmp	r3, #1
 469 0206 40F08380 		bne	.L10
 242:InterruptRoutines.c ****             {
 243:InterruptRoutines.c ****                 // Read register
 244:InterruptRoutines.c ****                 // communicate on UART if this freq is already setted
 245:InterruptRoutines.c ****                 if ( ACC_readRegister(LIS3DH_CTRL_REG1) & LIS3DH_CTRL_REG1_ODR_START_25HZ )
 470              		.loc 1 245 0
 471 020a 2020     		movs	r0, #32
 472 020c FFF7FEFF 		bl	ACC_readRegister
 473              	.LVL37:
 474 0210 10F0370F 		tst	r0, #55
 475 0214 03D0     		beq	.L35
 246:InterruptRoutines.c ****                 {
 247:InterruptRoutines.c ****                    UART_1_PutString("The selected option was already been setted \r\n");
 476              		.loc 1 247 0
 477 0216 2E48     		ldr	r0, .L44+56
 478 0218 FFF7FEFF 		bl	UART_1_PutString
 479              	.LVL38:
 480 021c 06E0     		b	.L36
 481              	.L35:
 248:InterruptRoutines.c ****                 }
 249:InterruptRoutines.c ****                 // if not write the new freq + communicate on UART the change
 250:InterruptRoutines.c ****                 else
 251:InterruptRoutines.c ****                 {
 252:InterruptRoutines.c ****                     ACC_writeRegister(LIS3DH_CTRL_REG1,LIS3DH_CTRL_REG1_ODR_START_25HZ);
 482              		.loc 1 252 0
 483 021e 3721     		movs	r1, #55
 484 0220 2020     		movs	r0, #32
 485 0222 FFF7FEFF 		bl	ACC_writeRegister
 486              	.LVL39:
 253:InterruptRoutines.c ****                     UART_1_PutString("The change was successful \r\n");
 487              		.loc 1 253 0
 488 0226 2B48     		ldr	r0, .L44+60
ARM GAS  C:\Users\Ilaria\AppData\Local\Temp\ccAQGcPD.s 			page 14


 489 0228 FFF7FEFF 		bl	UART_1_PutString
 490              	.LVL40:
 491              	.L36:
 254:InterruptRoutines.c ****                 }
 255:InterruptRoutines.c ****                 
 256:InterruptRoutines.c ****                 // delate previous data in EEPROM + reset counter stooring data
 257:InterruptRoutines.c ****                 // save new configuration in EEPROM memory
 258:InterruptRoutines.c ****                 SamplingFreqFlag=0;
 492              		.loc 1 258 0
 493 022c 0022     		movs	r2, #0
 494 022e 214B     		ldr	r3, .L44+28
 495 0230 DA70     		strb	r2, [r3, #3]
 496 0232 08BD     		pop	{r3, pc}
 497              	.L16:
 259:InterruptRoutines.c ****             }
 260:InterruptRoutines.c ****         break;
 261:InterruptRoutines.c ****             
 262:InterruptRoutines.c ****         // 4 command on UART
 263:InterruptRoutines.c ****         case '4':
 264:InterruptRoutines.c ****             if (FSRFlag==1) // +- 16g
 498              		.loc 1 264 0
 499 0234 1F4B     		ldr	r3, .L44+28
 500 0236 9B78     		ldrb	r3, [r3, #2]	@ zero_extendqisi2
 501 0238 012B     		cmp	r3, #1
 502 023a 13D1     		bne	.L37
 265:InterruptRoutines.c ****             {
 266:InterruptRoutines.c ****                 // Read register
 267:InterruptRoutines.c ****                 // communicate on UART if this FSR is already setted
 268:InterruptRoutines.c ****                 if ( ACC_readRegister(LIS3DH_CTRL_REG4) & LIS3DH_CTRL_REG4_FSR_16 )
 503              		.loc 1 268 0
 504 023c 2320     		movs	r0, #35
 505 023e FFF7FEFF 		bl	ACC_readRegister
 506              	.LVL41:
 507 0242 10F0B00F 		tst	r0, #176
 508 0246 03D0     		beq	.L38
 269:InterruptRoutines.c ****                 {
 270:InterruptRoutines.c ****                    UART_1_PutString("The selected option was already been setted \r\n");
 509              		.loc 1 270 0
 510 0248 2148     		ldr	r0, .L44+56
 511 024a FFF7FEFF 		bl	UART_1_PutString
 512              	.LVL42:
 513 024e 06E0     		b	.L39
 514              	.L38:
 271:InterruptRoutines.c ****                 }
 272:InterruptRoutines.c ****                 // if not write the new FSR + communicate on UART the change
 273:InterruptRoutines.c ****                 else 
 274:InterruptRoutines.c ****                 {
 275:InterruptRoutines.c ****                     ACC_writeRegister(LIS3DH_CTRL_REG4,LIS3DH_CTRL_REG4_FSR_16);
 515              		.loc 1 275 0
 516 0250 B021     		movs	r1, #176
 517 0252 2320     		movs	r0, #35
 518 0254 FFF7FEFF 		bl	ACC_writeRegister
 519              	.LVL43:
 276:InterruptRoutines.c ****                      UART_1_PutString("The change was successful \r\n");
 520              		.loc 1 276 0
 521 0258 1E48     		ldr	r0, .L44+60
 522 025a FFF7FEFF 		bl	UART_1_PutString
ARM GAS  C:\Users\Ilaria\AppData\Local\Temp\ccAQGcPD.s 			page 15


 523              	.LVL44:
 524              	.L39:
 277:InterruptRoutines.c ****                 }
 278:InterruptRoutines.c ****                 
 279:InterruptRoutines.c ****                 // delate previous data in EEPROM + reset counter stooring data
 280:InterruptRoutines.c ****                 // save new configuration in EEPROM memory
 281:InterruptRoutines.c ****                 FSRFlag=0; 
 525              		.loc 1 281 0
 526 025e 0022     		movs	r2, #0
 527 0260 144B     		ldr	r3, .L44+28
 528 0262 9A70     		strb	r2, [r3, #2]
 529              	.L37:
 282:InterruptRoutines.c ****             }
 283:InterruptRoutines.c ****             if (SamplingFreqFlag==1) // 50Hz
 530              		.loc 1 283 0
 531 0264 134B     		ldr	r3, .L44+28
 532 0266 DB78     		ldrb	r3, [r3, #3]	@ zero_extendqisi2
 533 0268 012B     		cmp	r3, #1
 534 026a 51D1     		bne	.L10
 284:InterruptRoutines.c ****             {
 285:InterruptRoutines.c ****                 // Read register
 286:InterruptRoutines.c ****                 // communicate on UART if this freq is already setted
 287:InterruptRoutines.c ****                 if ( ACC_readRegister(LIS3DH_CTRL_REG1) & LIS3DH_CTRL_REG1_ODR_START_50HZ )
 535              		.loc 1 287 0
 536 026c 2020     		movs	r0, #32
 537 026e FFF7FEFF 		bl	ACC_readRegister
 538              	.LVL45:
 539 0272 10F0470F 		tst	r0, #71
 540 0276 03D0     		beq	.L40
 288:InterruptRoutines.c ****                 {
 289:InterruptRoutines.c ****                    UART_1_PutString("The selected option was already been setted \r\n");
 541              		.loc 1 289 0
 542 0278 1548     		ldr	r0, .L44+56
 543 027a FFF7FEFF 		bl	UART_1_PutString
 544              	.LVL46:
 545 027e 06E0     		b	.L41
 546              	.L40:
 290:InterruptRoutines.c ****                 }
 291:InterruptRoutines.c ****                 // if not write the new freq + communicate on UART the change
 292:InterruptRoutines.c ****                 else
 293:InterruptRoutines.c ****                 {
 294:InterruptRoutines.c ****                     ACC_writeRegister(LIS3DH_CTRL_REG1,LIS3DH_CTRL_REG1_ODR_START_50HZ);
 547              		.loc 1 294 0
 548 0280 4721     		movs	r1, #71
 549 0282 2020     		movs	r0, #32
 550 0284 FFF7FEFF 		bl	ACC_writeRegister
 551              	.LVL47:
 295:InterruptRoutines.c ****                     UART_1_PutString("The change was successful \r\n");
 552              		.loc 1 295 0
 553 0288 1248     		ldr	r0, .L44+60
 554 028a FFF7FEFF 		bl	UART_1_PutString
 555              	.LVL48:
 556              	.L41:
 296:InterruptRoutines.c ****                 }
 297:InterruptRoutines.c ****                 
 298:InterruptRoutines.c ****                 // delate previous data in EEPROM + reset counter stooring data
 299:InterruptRoutines.c ****                 // save new configuration in EEPROM memory
ARM GAS  C:\Users\Ilaria\AppData\Local\Temp\ccAQGcPD.s 			page 16


 300:InterruptRoutines.c ****                 SamplingFreqFlag=0;
 557              		.loc 1 300 0
 558 028e 0022     		movs	r2, #0
 559 0290 084B     		ldr	r3, .L44+28
 560 0292 DA70     		strb	r2, [r3, #3]
 561 0294 08BD     		pop	{r3, pc}
 562              	.L45:
 563 0296 00BF     		.align	2
 564              	.L44:
 565 0298 00000000 		.word	ch_received
 566 029c 00000000 		.word	.LC0
 567 02a0 38000000 		.word	.LC1
 568 02a4 64000000 		.word	.LC2
 569 02a8 84000000 		.word	.LC3
 570 02ac A4000000 		.word	.LC4
 571 02b0 C4000000 		.word	.LC5
 572 02b4 00000000 		.word	.LANCHOR0
 573 02b8 E4000000 		.word	.LC6
 574 02bc 20010000 		.word	.LC7
 575 02c0 4C010000 		.word	.LC8
 576 02c4 68010000 		.word	.LC9
 577 02c8 88010000 		.word	.LC10
 578 02cc A8010000 		.word	.LC11
 579 02d0 C8010000 		.word	.LC12
 580 02d4 F8010000 		.word	.LC13
 581              	.L21:
 301:InterruptRoutines.c ****             }
 302:InterruptRoutines.c ****         break;
 303:InterruptRoutines.c ****             
 304:InterruptRoutines.c ****         // Visualize data on Bridge Control Panel command on UART
 305:InterruptRoutines.c ****         case 'V':
 306:InterruptRoutines.c ****         case 'v':
 307:InterruptRoutines.c ****             
 308:InterruptRoutines.c ****         break;
 309:InterruptRoutines.c ****             
 310:InterruptRoutines.c ****         // Stop visualize data on Bridge Control Panel command on UART
 311:InterruptRoutines.c ****         case 'U':
 312:InterruptRoutines.c ****         case 'u':
 313:InterruptRoutines.c ****             
 314:InterruptRoutines.c ****         break;
 315:InterruptRoutines.c ****             
 316:InterruptRoutines.c ****         // Temperature mode command on UART
 317:InterruptRoutines.c ****         case 'T':
 318:InterruptRoutines.c ****         case 't':
 319:InterruptRoutines.c ****             if ( TemperatureMode == 0 )
 582              		.loc 1 319 0
 583 02d8 0E4B     		ldr	r3, .L46
 584 02da 1B78     		ldrb	r3, [r3]	@ zero_extendqisi2
 585 02dc 0BB9     		cbnz	r3, .L42
 320:InterruptRoutines.c ****             {
 321:InterruptRoutines.c ****                 Timer_Start(); // Start sampling Temperature values every Timer overflow
 586              		.loc 1 321 0
 587 02de FFF7FEFF 		bl	Timer_Start
 588              	.LVL49:
 589              	.L42:
 322:InterruptRoutines.c ****             }
 323:InterruptRoutines.c ****             /* SHOW TEMPERATURE MENU' ON UART*/
ARM GAS  C:\Users\Ilaria\AppData\Local\Temp\ccAQGcPD.s 			page 17


 324:InterruptRoutines.c ****             UART_1_PutString("Store the temperature data \r\n");
 590              		.loc 1 324 0
 591 02e2 0D48     		ldr	r0, .L46+4
 592 02e4 FFF7FEFF 		bl	UART_1_PutString
 593              	.LVL50:
 325:InterruptRoutines.c ****             UART_1_PutString("Character            Temperature format \r\n");
 594              		.loc 1 325 0
 595 02e8 0C48     		ldr	r0, .L46+8
 596 02ea FFF7FEFF 		bl	UART_1_PutString
 597              	.LVL51:
 326:InterruptRoutines.c ****             UART_1_PutString("c                    Store data in Celsius format \r\n");
 598              		.loc 1 326 0
 599 02ee 0C48     		ldr	r0, .L46+12
 600 02f0 FFF7FEFF 		bl	UART_1_PutString
 601              	.LVL52:
 327:InterruptRoutines.c ****             UART_1_PutString("f                    Store data in Fahrenheit format  \r\n");
 602              		.loc 1 327 0
 603 02f4 0B48     		ldr	r0, .L46+16
 604 02f6 FFF7FEFF 		bl	UART_1_PutString
 605              	.LVL53:
 328:InterruptRoutines.c ****             TemperatureMode=1;
 606              		.loc 1 328 0
 607 02fa 0122     		movs	r2, #1
 608 02fc 054B     		ldr	r3, .L46
 609 02fe 1A70     		strb	r2, [r3]
 329:InterruptRoutines.c ****             
 330:InterruptRoutines.c ****             // Timer_Stop(); in usvita dalla modalità temp?
 331:InterruptRoutines.c ****         break;
 610              		.loc 1 331 0
 611 0300 08BD     		pop	{r3, pc}
 612              	.L18:
 332:InterruptRoutines.c ****             
 333:InterruptRoutines.c ****         // Temperature in Celsius command on UART
 334:InterruptRoutines.c ****         case 'C':
 335:InterruptRoutines.c ****         case 'c':
 336:InterruptRoutines.c ****             if (TemperatureMode==1)
 613              		.loc 1 336 0
 614 0302 044B     		ldr	r3, .L46
 615 0304 1B78     		ldrb	r3, [r3]	@ zero_extendqisi2
 616 0306 012B     		cmp	r3, #1
 617 0308 02D1     		bne	.L10
 337:InterruptRoutines.c ****             {
 338:InterruptRoutines.c ****                 FahrenheitFlag=0;
 618              		.loc 1 338 0
 619 030a 0022     		movs	r2, #0
 620 030c 014B     		ldr	r3, .L46
 621 030e 5A70     		strb	r2, [r3, #1]
 622              	.L10:
 623 0310 08BD     		pop	{r3, pc}
 624              	.L47:
 625 0312 00BF     		.align	2
 626              	.L46:
 627 0314 00000000 		.word	.LANCHOR0
 628 0318 18020000 		.word	.LC14
 629 031c 38020000 		.word	.LC15
 630 0320 64020000 		.word	.LC16
 631 0324 9C020000 		.word	.LC17
ARM GAS  C:\Users\Ilaria\AppData\Local\Temp\ccAQGcPD.s 			page 18


 632              		.cfi_endproc
 633              	.LFE66:
 634              		.size	Custom_ISR_RX, .-Custom_ISR_RX
 635              		.comm	value_mv,4,4
 636              		.comm	value_digit,4,4
 637              		.comm	value_temp,4,4
 638              		.global	FahrenheitFlag
 639              		.global	TemperatureMode
 640              		.global	SamplingFreqFlag
 641              		.global	FSRFlag
 642              		.comm	ch_received,1,1
 643              		.comm	PacketReadyFlag,1,1
 644              		.comm	DataBuffer,10,4
 645              		.section	.rodata.str1.4,"aMS",%progbits,1
 646              		.align	2
 647              	.LC0:
 648 0000 436F6E66 		.ascii	"Configuration of the accelerometer full scale range"
 648      69677572 
 648      6174696F 
 648      6E206F66 
 648      20746865 
 649 0033 200D0A00 		.ascii	" \015\012\000"
 650 0037 00       		.space	1
 651              	.LC1:
 652 0038 43686172 		.ascii	"Character            Full scale range \015\012\000"
 652      61637465 
 652      72202020 
 652      20202020 
 652      20202020 
 653 0061 000000   		.space	3
 654              	.LC2:
 655 0064 31202020 		.ascii	"1                    +- 2g \015\012\000"
 655      20202020 
 655      20202020 
 655      20202020 
 655      20202020 
 656 0082 0000     		.space	2
 657              	.LC3:
 658 0084 32202020 		.ascii	"2                    +- 4g \015\012\000"
 658      20202020 
 658      20202020 
 658      20202020 
 658      20202020 
 659 00a2 0000     		.space	2
 660              	.LC4:
 661 00a4 33202020 		.ascii	"3                    +- 8g \015\012\000"
 661      20202020 
 661      20202020 
 661      20202020 
 661      20202020 
 662 00c2 0000     		.space	2
 663              	.LC5:
 664 00c4 34202020 		.ascii	"4                    +- 16g \015\012\000"
 664      20202020 
 664      20202020 
 664      20202020 
 664      20202020 
ARM GAS  C:\Users\Ilaria\AppData\Local\Temp\ccAQGcPD.s 			page 19


 665 00e3 00       		.space	1
 666              	.LC6:
 667 00e4 436F6E66 		.ascii	"Configuration of the accelerometer sampling frequen"
 667      69677572 
 667      6174696F 
 667      6E206F66 
 667      20746865 
 668 0117 6379200D 		.ascii	"cy \015\012\000"
 668      0A00
 669 011d 000000   		.space	3
 670              	.LC7:
 671 0120 43686172 		.ascii	"Character            Sampling Frequency \015\012\000"
 671      61637465 
 671      72202020 
 671      20202020 
 671      20202020 
 672 014b 00       		.space	1
 673              	.LC8:
 674 014c 31202020 		.ascii	"1                    1Hz \015\012\000"
 674      20202020 
 674      20202020 
 674      20202020 
 674      20202020 
 675              	.LC9:
 676 0168 32202020 		.ascii	"2                    10Hz \015\012\000"
 676      20202020 
 676      20202020 
 676      20202020 
 676      20202020 
 677 0185 000000   		.space	3
 678              	.LC10:
 679 0188 33202020 		.ascii	"3                    25Hz \015\012\000"
 679      20202020 
 679      20202020 
 679      20202020 
 679      20202020 
 680 01a5 000000   		.space	3
 681              	.LC11:
 682 01a8 34202020 		.ascii	"4                    50Hz \015\012\000"
 682      20202020 
 682      20202020 
 682      20202020 
 682      20202020 
 683 01c5 000000   		.space	3
 684              	.LC12:
 685 01c8 54686520 		.ascii	"The selected option was already been setted \015\012"
 685      73656C65 
 685      63746564 
 685      206F7074 
 685      696F6E20 
 686 01f6 00       		.ascii	"\000"
 687 01f7 00       		.space	1
 688              	.LC13:
 689 01f8 54686520 		.ascii	"The change was successful \015\012\000"
 689      6368616E 
 689      67652077 
 689      61732073 
ARM GAS  C:\Users\Ilaria\AppData\Local\Temp\ccAQGcPD.s 			page 20


 689      75636365 
 690 0215 000000   		.space	3
 691              	.LC14:
 692 0218 53746F72 		.ascii	"Store the temperature data \015\012\000"
 692      65207468 
 692      65207465 
 692      6D706572 
 692      61747572 
 693 0236 0000     		.space	2
 694              	.LC15:
 695 0238 43686172 		.ascii	"Character            Temperature format \015\012\000"
 695      61637465 
 695      72202020 
 695      20202020 
 695      20202020 
 696 0263 00       		.space	1
 697              	.LC16:
 698 0264 63202020 		.ascii	"c                    Store data in Celsius format \015"
 698      20202020 
 698      20202020 
 698      20202020 
 698      20202020 
 699 0297 0A00     		.ascii	"\012\000"
 700 0299 000000   		.space	3
 701              	.LC17:
 702 029c 66202020 		.ascii	"f                    Store data in Fahrenheit forma"
 702      20202020 
 702      20202020 
 702      20202020 
 702      20202020 
 703 02cf 7420200D 		.ascii	"t  \015\012\000"
 703      0A00
 704              		.bss
 705              		.set	.LANCHOR0,. + 0
 706              		.type	TemperatureMode, %object
 707              		.size	TemperatureMode, 1
 708              	TemperatureMode:
 709 0000 00       		.space	1
 710              		.type	FahrenheitFlag, %object
 711              		.size	FahrenheitFlag, 1
 712              	FahrenheitFlag:
 713 0001 00       		.space	1
 714              		.type	FSRFlag, %object
 715              		.size	FSRFlag, 1
 716              	FSRFlag:
 717 0002 00       		.space	1
 718              		.type	SamplingFreqFlag, %object
 719              		.size	SamplingFreqFlag, 1
 720              	SamplingFreqFlag:
 721 0003 00       		.space	1
 722              		.text
 723              	.Letext0:
 724              		.file 2 "c:\\program files (x86)\\cypress\\psoc creator\\4.3\\psoc creator\\import\\gnu\\arm\\5.4.
 725              		.file 3 "c:\\program files (x86)\\cypress\\psoc creator\\4.3\\psoc creator\\import\\gnu\\arm\\5.4.
 726              		.file 4 "Generated_Source\\PSoC5/cytypes.h"
 727              		.file 5 "InterruptRoutines.h"
 728              		.file 6 "Generated_Source\\PSoC5/core_cm3.h"
ARM GAS  C:\Users\Ilaria\AppData\Local\Temp\ccAQGcPD.s 			page 21


 729              		.file 7 "Generated_Source\\PSoC5/Timer.h"
 730              		.file 8 "Generated_Source\\PSoC5/ADC_DelSig.h"
 731              		.file 9 "Generated_Source\\PSoC5/UART_1.h"
 732              		.file 10 "Functions.h"
 733              		.file 11 "LIS3DH.h"