ARM GAS  C:\Users\Ilaria\AppData\Local\Temp\cckLOBka.s 			page 1


   1              		.syntax unified
   2              		.cpu cortex-m3
   3              		.fpu softvfp
   4              		.eabi_attribute 20, 1
   5              		.eabi_attribute 21, 1
   6              		.eabi_attribute 23, 3
   7              		.eabi_attribute 24, 1
   8              		.eabi_attribute 25, 1
   9              		.eabi_attribute 26, 1
  10              		.eabi_attribute 30, 1
  11              		.eabi_attribute 34, 1
  12              		.eabi_attribute 18, 4
  13              		.thumb
  14              		.syntax unified
  15              		.file	"LIS3DH.c"
  16              		.text
  17              	.Ltext0:
  18              		.cfi_sections	.debug_frame
  19              		.section	.text.ACC_writeRegister,"ax",%progbits
  20              		.align	2
  21              		.global	ACC_writeRegister
  22              		.thumb
  23              		.thumb_func
  24              		.type	ACC_writeRegister, %function
  25              	ACC_writeRegister:
  26              	.LFB0:
  27              		.file 1 "LIS3DH.c"
   1:LIS3DH.c      **** /* ========================================
   2:LIS3DH.c      ****  *
   3:LIS3DH.c      ****  * Copyright YOUR COMPANY, THE YEAR
   4:LIS3DH.c      ****  * All Rights Reserved
   5:LIS3DH.c      ****  * UNPUBLISHED, LICENSED SOFTWARE.
   6:LIS3DH.c      ****  *
   7:LIS3DH.c      ****  * CONFIDENTIAL AND PROPRIETARY INFORMATION
   8:LIS3DH.c      ****  * WHICH IS THE PROPERTY OF your company.
   9:LIS3DH.c      ****  *
  10:LIS3DH.c      ****  * ========================================
  11:LIS3DH.c      **** */
  12:LIS3DH.c      **** #include "LIS3DH.h"
  13:LIS3DH.c      **** 
  14:LIS3DH.c      **** /** ====== User-level Functions ====== **/
  15:LIS3DH.c      **** 
  16:LIS3DH.c      **** 
  17:LIS3DH.c      **** void ACC_writeRegister(uint8_t reg_addr, uint8_t dataByte) {
  28              		.loc 1 17 0
  29              		.cfi_startproc
  30              		@ args = 0, pretend = 0, frame = 8
  31              		@ frame_needed = 0, uses_anonymous_args = 0
  32              	.LVL0:
  33 0000 30B5     		push	{r4, r5, lr}
  34              		.cfi_def_cfa_offset 12
  35              		.cfi_offset 4, -12
  36              		.cfi_offset 5, -8
  37              		.cfi_offset 14, -4
  38 0002 83B0     		sub	sp, sp, #12
  39              		.cfi_def_cfa_offset 24
  18:LIS3DH.c      ****   	
ARM GAS  C:\Users\Ilaria\AppData\Local\Temp\cckLOBka.s 			page 2


  19:LIS3DH.c      **** 	/* Prepare the TX packet */
  20:LIS3DH.c      ****     uint8_t dataTX[2] = {(SPI_ACC_SINGLE_WRITE | reg_addr) , dataByte};
  40              		.loc 1 20 0
  41 0004 8DF80400 		strb	r0, [sp, #4]
  42 0008 8DF80510 		strb	r1, [sp, #5]
  21:LIS3DH.c      **** 	/* Nothing to RX... */
  22:LIS3DH.c      **** 	uint8_t temp = 0;
  43              		.loc 1 22 0
  44 000c 0024     		movs	r4, #0
  45 000e 02AD     		add	r5, sp, #8
  46 0010 05F8054D 		strb	r4, [r5, #-5]!
  23:LIS3DH.c      **** 	
  24:LIS3DH.c      ****     /* Enable the Slave */
  25:LIS3DH.c      ****     SLAVE_ACC_CS_Write(1);
  47              		.loc 1 25 0
  48 0014 0120     		movs	r0, #1
  49              	.LVL1:
  50 0016 FFF7FEFF 		bl	CS_2_Write
  51              	.LVL2:
  26:LIS3DH.c      ****     
  27:LIS3DH.c      **** 	/* Write 1 byte to addr */
  28:LIS3DH.c      **** 	SPI_Interface_LIS3DH_Multi_RW(dataTX, 2, &temp, 0);
  52              		.loc 1 28 0
  53 001a 2346     		mov	r3, r4
  54 001c 2A46     		mov	r2, r5
  55 001e 0221     		movs	r1, #2
  56 0020 01A8     		add	r0, sp, #4
  57 0022 FFF7FEFF 		bl	SPI_Interface_LIS3DH_Multi_RW
  58              	.LVL3:
  29:LIS3DH.c      ****     
  30:LIS3DH.c      **** 	/* Disable the Slave */  
  31:LIS3DH.c      ****     SLAVE_ACC_CS_Write(0);
  59              		.loc 1 31 0
  60 0026 2046     		mov	r0, r4
  61 0028 FFF7FEFF 		bl	CS_2_Write
  62              	.LVL4:
  32:LIS3DH.c      **** }
  63              		.loc 1 32 0
  64 002c 03B0     		add	sp, sp, #12
  65              		.cfi_def_cfa_offset 12
  66              		@ sp needed
  67 002e 30BD     		pop	{r4, r5, pc}
  68              		.cfi_endproc
  69              	.LFE0:
  70              		.size	ACC_writeRegister, .-ACC_writeRegister
  71              		.section	.text.ACC_readRegister,"ax",%progbits
  72              		.align	2
  73              		.global	ACC_readRegister
  74              		.thumb
  75              		.thumb_func
  76              		.type	ACC_readRegister, %function
  77              	ACC_readRegister:
  78              	.LFB1:
  33:LIS3DH.c      **** 
  34:LIS3DH.c      **** uint8_t ACC_readRegister(uint8_t reg_addr) {
  79              		.loc 1 34 0
  80              		.cfi_startproc
ARM GAS  C:\Users\Ilaria\AppData\Local\Temp\cckLOBka.s 			page 3


  81              		@ args = 0, pretend = 0, frame = 8
  82              		@ frame_needed = 0, uses_anonymous_args = 0
  83              	.LVL5:
  84 0000 00B5     		push	{lr}
  85              		.cfi_def_cfa_offset 4
  86              		.cfi_offset 14, -4
  87 0002 83B0     		sub	sp, sp, #12
  88              		.cfi_def_cfa_offset 16
  35:LIS3DH.c      **** 
  36:LIS3DH.c      **** 	/* Prepare the TX data packet: instruction + address */
  37:LIS3DH.c      **** 	uint8_t dataTX[1] = {(SPI_ACC_SINGLE_READ | reg_addr)};
  89              		.loc 1 37 0
  90 0004 60F07F00 		orn	r0, r0, #127
  91              	.LVL6:
  92 0008 8DF80400 		strb	r0, [sp, #4]
  38:LIS3DH.c      **** 	
  39:LIS3DH.c      **** 	/* Prepare the RX byte */
  40:LIS3DH.c      **** 	uint8_t dataRX = 0;
  93              		.loc 1 40 0
  94 000c 02AA     		add	r2, sp, #8
  95 000e 0023     		movs	r3, #0
  96 0010 02F8053D 		strb	r3, [r2, #-5]!
  41:LIS3DH.c      **** 	
  42:LIS3DH.c      **** 	/* Read 1 byte from addr */
  43:LIS3DH.c      **** 	SPI_Interface_LIS3DH_Multi_RW(dataTX, 1, &dataRX, 1);
  97              		.loc 1 43 0
  98 0014 0123     		movs	r3, #1
  99 0016 1946     		mov	r1, r3
 100 0018 01A8     		add	r0, sp, #4
 101 001a FFF7FEFF 		bl	SPI_Interface_LIS3DH_Multi_RW
 102              	.LVL7:
  44:LIS3DH.c      ****         
  45:LIS3DH.c      **** 	return dataRX;
  46:LIS3DH.c      **** 
  47:LIS3DH.c      **** }
 103              		.loc 1 47 0
 104 001e 9DF80300 		ldrb	r0, [sp, #3]	@ zero_extendqisi2
 105 0022 03B0     		add	sp, sp, #12
 106              		.cfi_def_cfa_offset 4
 107              		@ sp needed
 108 0024 5DF804FB 		ldr	pc, [sp], #4
 109              		.cfi_endproc
 110              	.LFE1:
 111              		.size	ACC_readRegister, .-ACC_readRegister
 112              		.section	.text.ACC_Multi_Read,"ax",%progbits
 113              		.align	2
 114              		.global	ACC_Multi_Read
 115              		.thumb
 116              		.thumb_func
 117              		.type	ACC_Multi_Read, %function
 118              	ACC_Multi_Read:
 119              	.LFB2:
  48:LIS3DH.c      **** 
  49:LIS3DH.c      **** void ACC_Multi_Read(uint8_t addr, uint8_t* dataRX, uint8_t nBytes) {
 120              		.loc 1 49 0
 121              		.cfi_startproc
 122              		@ args = 0, pretend = 0, frame = 8
ARM GAS  C:\Users\Ilaria\AppData\Local\Temp\cckLOBka.s 			page 4


 123              		@ frame_needed = 0, uses_anonymous_args = 0
 124              	.LVL8:
 125 0000 00B5     		push	{lr}
 126              		.cfi_def_cfa_offset 4
 127              		.cfi_offset 14, -4
 128 0002 83B0     		sub	sp, sp, #12
 129              		.cfi_def_cfa_offset 16
  50:LIS3DH.c      ****     
  51:LIS3DH.c      **** 	/* Prepare the TX data packet: instruction + address */
  52:LIS3DH.c      **** 	uint8_t dataTX[1] = {( SPI_ACC_MULTI_READ | addr )};
 130              		.loc 1 52 0
 131 0004 60F03F03 		orn	r3, r0, #63
 132 0008 02A8     		add	r0, sp, #8
 133              	.LVL9:
 134 000a 00F8043D 		strb	r3, [r0, #-4]!
  53:LIS3DH.c      **** 	
  54:LIS3DH.c      **** 	/* Read the nBytes */
  55:LIS3DH.c      **** 	SPI_Interface_LIS3DH_Multi_RW(dataTX, 1, dataRX, nBytes);
 135              		.loc 1 55 0
 136 000e 1346     		mov	r3, r2
 137 0010 0A46     		mov	r2, r1
 138              	.LVL10:
 139 0012 0121     		movs	r1, #1
 140              	.LVL11:
 141 0014 FFF7FEFF 		bl	SPI_Interface_LIS3DH_Multi_RW
 142              	.LVL12:
  56:LIS3DH.c      **** 		
  57:LIS3DH.c      **** }
 143              		.loc 1 57 0
 144 0018 03B0     		add	sp, sp, #12
 145              		.cfi_def_cfa_offset 4
 146              		@ sp needed
 147 001a 5DF804FB 		ldr	pc, [sp], #4
 148              		.cfi_endproc
 149              	.LFE2:
 150              		.size	ACC_Multi_Read, .-ACC_Multi_Read
 151 001e 00BF     		.text
 152              	.Letext0:
 153              		.file 2 "c:\\program files (x86)\\cypress\\psoc creator\\4.3\\psoc creator\\import\\gnu\\arm\\5.4.
 154              		.file 3 "c:\\program files (x86)\\cypress\\psoc creator\\4.3\\psoc creator\\import\\gnu\\arm\\5.4.
 155              		.file 4 "Generated_Source\\PSoC5/CS_2.h"
 156              		.file 5 "SPI_Interface_LIS3DH.h"