ARM GAS  C:\Users\Ilaria\AppData\Local\Temp\ccNHqM6j.s 			page 1


   1              		.syntax unified
   2              		.cpu cortex-m3
   3              		.fpu softvfp
   4              		.eabi_attribute 20, 1
   5              		.eabi_attribute 21, 1
   6              		.eabi_attribute 23, 3
   7              		.eabi_attribute 24, 1
   8              		.eabi_attribute 25, 1
   9              		.eabi_attribute 26, 1
  10              		.eabi_attribute 30, 1
  11              		.eabi_attribute 34, 1
  12              		.eabi_attribute 18, 4
  13              		.thumb
  14              		.syntax unified
  15              		.file	"main.c"
  16              		.text
  17              	.Ltext0:
  18              		.cfi_sections	.debug_frame
  19              		.section	.text.main,"ax",%progbits
  20              		.align	2
  21              		.global	main
  22              		.thumb
  23              		.thumb_func
  24              		.type	main, %function
  25              	main:
  26              	.LFB64:
  27              		.file 1 "main.c"
   1:main.c        **** /**
   2:main.c        ****  * @file main.c
   3:main.c        ****  * @brief Main file of the EEPROM 25LC256 and Accelerometer LIS3DH project
   4:main.c        ****  * 
   5:main.c        ****  * Communication of accelerometer via SPI protocol
   6:main.c        ****  * Usage of 25LC256 SPI EEPROM
   7:main.c        ****  * interfaced using the library hereby implemented.
   8:main.c        ****  *
   9:main.c        ****  * @autors: Catarrasa Ilaria, Fasani Federica, Milani Ilaria
  10:main.c        ****  * @date 13-May-2020
  11:main.c        ****  */
  12:main.c        **** 
  13:main.c        **** // Include required header files
  14:main.c        **** #include "project.h"
  15:main.c        **** #include "stdio.h"
  16:main.c        **** #include "string.h"
  17:main.c        **** #include "InterruptRoutines.h"
  18:main.c        **** #include "Functions.h"
  19:main.c        **** 
  20:main.c        **** /* EEPROM 25LC256 Library */
  21:main.c        **** #include "25LC256.h"
  22:main.c        **** /* EEPROM LIS3DH Library */
  23:main.c        **** #include "LIS3DH.h"
  24:main.c        **** 
  25:main.c        **** /*Include the macros*/
  26:main.c        **** #include "header.h"
  27:main.c        **** 
  28:main.c        **** //Counter for address where to start
  29:main.c        **** 
  30:main.c        **** 
ARM GAS  C:\Users\Ilaria\AppData\Local\Temp\ccNHqM6j.s 			page 2


  31:main.c        **** 
  32:main.c        **** int main(void) {
  28              		.loc 1 32 0
  29              		.cfi_startproc
  30              		@ args = 0, pretend = 0, frame = 200
  31              		@ frame_needed = 0, uses_anonymous_args = 0
  32 0000 30B5     		push	{r4, r5, lr}
  33              		.cfi_def_cfa_offset 12
  34              		.cfi_offset 4, -12
  35              		.cfi_offset 5, -8
  36              		.cfi_offset 14, -4
  37 0002 B3B0     		sub	sp, sp, #204
  38              		.cfi_def_cfa_offset 216
  33:main.c        ****     
  34:main.c        ****     /* Enable global interrupts. */
  35:main.c        ****     CyGlobalIntEnable; 
  39              		.loc 1 35 0
  40              		.syntax unified
  41              	@ 35 "main.c" 1
  42 0004 62B6     		CPSIE   i
  43              	@ 0 "" 2
  36:main.c        ****     
  37:main.c        ****     /* Start UART */
  38:main.c        ****     UART_1_Start();
  44              		.loc 1 38 0
  45              		.thumb
  46              		.syntax unified
  47 0006 FFF7FEFF 		bl	UART_1_Start
  48              	.LVL0:
  39:main.c        ****     
  40:main.c        ****     /* Start SPI Master 1*/
  41:main.c        ****     SPIM_1_Start();
  49              		.loc 1 41 0
  50 000a FFF7FEFF 		bl	SPIM_1_Start
  51              	.LVL1:
  42:main.c        ****     
  43:main.c        ****     /* Start SPI Master 2*/
  44:main.c        ****     SPIM_2_Start();
  52              		.loc 1 44 0
  53 000e FFF7FEFF 		bl	SPIM_2_Start
  54              	.LVL2:
  45:main.c        ****     
  46:main.c        ****     /* Start ADC */
  47:main.c        ****     ADC_DelSig_Start();
  55              		.loc 1 47 0
  56 0012 FFF7FEFF 		bl	ADC_DelSig_Start
  57              	.LVL3:
  48:main.c        ****     
  49:main.c        ****     /* Start ISR_RX */
  50:main.c        ****     isr_RX_StartEx(Custom_ISR_RX);
  58              		.loc 1 50 0
  59 0016 A348     		ldr	r0, .L14
  60 0018 FFF7FEFF 		bl	isr_RX_StartEx
  61              	.LVL4:
  51:main.c        ****     
  52:main.c        ****     /* Start ISR_FIFO */
  53:main.c        ****     //isr_FIFO_StartEx(Custom_isr_FIFO);
ARM GAS  C:\Users\Ilaria\AppData\Local\Temp\ccNHqM6j.s 			page 3


  54:main.c        ****     
  55:main.c        ****     /* Start ISR_ADC */
  56:main.c        ****     isr_ADC_StartEx(Custom_ISR_ADC);  
  62              		.loc 1 56 0
  63 001c A248     		ldr	r0, .L14+4
  64 001e FFF7FEFF 		bl	isr_ADC_StartEx
  65              	.LVL5:
  57:main.c        ****     
  58:main.c        ****     /* Start ADC conversion */
  59:main.c        ****     ADC_DelSig_StartConvert();
  66              		.loc 1 59 0
  67 0022 FFF7FEFF 		bl	ADC_DelSig_StartConvert
  68              	.LVL6:
  60:main.c        ****     
  61:main.c        ****     /* Initialize PWM so that the Onboard LED is OFF */
  62:main.c        ****     PWM_OnboardLED_Start();
  69              		.loc 1 62 0
  70 0026 FFF7FEFF 		bl	PWM_OnboardLED_Start
  71              	.LVL7:
  63:main.c        ****     
  64:main.c        ****     /* Start on-board push button ISR */
  65:main.c        ****     ISR_Button_StartEx(Custom_ISR_Button);
  72              		.loc 1 65 0
  73 002a A048     		ldr	r0, .L14+8
  74 002c FFF7FEFF 		bl	ISR_Button_StartEx
  75              	.LVL8:
  66:main.c        ****     
  67:main.c        ****     
  68:main.c        ****     CyDelay(10); //"The boot procedure is complete about 10 milliseconds after device power-up."
  76              		.loc 1 68 0
  77 0030 0A20     		movs	r0, #10
  78 0032 FFF7FEFF 		bl	CyDelay
  79              	.LVL9:
  69:main.c        ****         
  70:main.c        **** //    /* PROJECT 1 */    
  71:main.c        **** //    /* Definition of the extern from 25LC256.c */
  72:main.c        **** //    uint8_t eeprom_Status = 0;
  73:main.c        **** //    
  74:main.c        **** //    eeprom_Status = EEPROM_readStatus();
  75:main.c        **** //    
  76:main.c        **** //    sprintf(bufferUART, "** EEPROM Status = 0x%02x\r\n", eeprom_Status);
  77:main.c        **** //    UART_1_PutBuffer;
  78:main.c        **** //    
  79:main.c        **** //    /* PROJECT 2 */
  80:main.c        **** //    /* Value to Write */
  81:main.c        **** //    uint8_t data = 94;
  82:main.c        **** //    
  83:main.c        **** //    /* Write */
  84:main.c        **** //    EEPROM_writeByte(0x0000, data);
  85:main.c        **** //    EEPROM_waitForWriteComplete();
  86:main.c        **** //    
  87:main.c        **** //    /* Read */
  88:main.c        **** //    uint8_t data_read = EEPROM_readByte(0x0000);
  89:main.c        **** //    
  90:main.c        **** //    sprintf(bufferUART, "** EEPROM Status = %d (%d)\r\n", data_read, data);
  91:main.c        **** //    UART_1_PutBuffer;
  92:main.c        ****  
ARM GAS  C:\Users\Ilaria\AppData\Local\Temp\ccNHqM6j.s 			page 4


  93:main.c        **** //    /* Data to Write */
  94:main.c        **** //    int16_t data[DATA_SIZE] = {15, -32, 258};
  95:main.c        **** //    
  96:main.c        **** //    /**** PROJECT 3 *****/
  97:main.c        **** //    
  98:main.c        **** //    /* Write */
  99:main.c        **** //    EEPROM_writePage(0x0001, (uint8_t*) data, DATA_BYTES);
 100:main.c        **** //    EEPROM_waitForWriteComplete();
 101:main.c        **** //    
 102:main.c        **** //    /**** PROJECT 4 ****/
 103:main.c        **** //    /* Read */
 104:main.c        **** //    int16_t data_read[DATA_SIZE];
 105:main.c        **** //    EEPROM_readPage(0x0001, (uint8_t*) data_read, DATA_BYTES);
 106:main.c        **** //    
 107:main.c        **** //    
 108:main.c        **** //    
 109:main.c        **** //    sprintf(bufferUART, "** EEPROM Read = %d %d %d \r\n", data_read[0], data_read[1], data_read[2
 110:main.c        **** //    UART_1_PutBuffer;
 111:main.c        **** //    
 112:main.c        **** //    UART_1_PutString("*************************************\r\n");
 113:main.c        **** //    
 114:main.c        **** //    return 0;
 115:main.c        ****     
 116:main.c        ****     
 117:main.c        ****     /* Read WHO AM I Accelerometer's register */
 118:main.c        **** 
 119:main.c        ****     uint8_t who_am_i;
 120:main.c        ****     
 121:main.c        ****     who_am_i = ACC_readRegister(LIS3DH_WHO_AM_I_REG_ADDR);
  80              		.loc 1 121 0
  81 0036 0F20     		movs	r0, #15
  82 0038 FFF7FEFF 		bl	ACC_readRegister
  83              	.LVL10:
 122:main.c        ****     sprintf(bufferUART, "** Who am I register = 0x%02X [Expected: 0x33]\r\n", who_am_i);
  84              		.loc 1 122 0
  85 003c 9C4C     		ldr	r4, .L14+12
  86 003e 0246     		mov	r2, r0
  87 0040 9C49     		ldr	r1, .L14+16
  88 0042 2046     		mov	r0, r4
  89              	.LVL11:
  90 0044 FFF7FEFF 		bl	sprintf
  91              	.LVL12:
 123:main.c        ****     UART_1_PutBuffer;
  92              		.loc 1 123 0
  93 0048 2046     		mov	r0, r4
  94 004a FFF7FEFF 		bl	UART_1_PutString
  95              	.LVL13:
 124:main.c        ****     
 125:main.c        ****     
 126:main.c        ****     /*******************************************************************/
 127:main.c        ****     /*            SPI to set Accelerometer's registers                 */
 128:main.c        ****     /*******************************************************************/
 129:main.c        ****     
 130:main.c        ****     UART_1_PutString("**************Registers Values**************\r\n");
  96              		.loc 1 130 0
  97 004e 9A48     		ldr	r0, .L14+20
  98 0050 FFF7FEFF 		bl	UART_1_PutString
ARM GAS  C:\Users\Ilaria\AppData\Local\Temp\ccNHqM6j.s 			page 5


  99              	.LVL14:
 131:main.c        ****     
 132:main.c        ****     /*Setting control register 1*/
 133:main.c        ****      uint8_t ctrl_reg1;    
 134:main.c        ****     //Enable the ODR
 135:main.c        ****     ACC_writeRegister(LIS3DH_CTRL_REG1, LIS3DH_CTRL_REG1_ODR_START_1HZ);
 100              		.loc 1 135 0
 101 0054 1721     		movs	r1, #23
 102 0056 2020     		movs	r0, #32
 103 0058 FFF7FEFF 		bl	ACC_writeRegister
 104              	.LVL15:
 136:main.c        ****                 
 137:main.c        ****     ctrl_reg1 = ACC_readRegister(LIS3DH_CTRL_REG1);
 105              		.loc 1 137 0
 106 005c 2020     		movs	r0, #32
 107 005e FFF7FEFF 		bl	ACC_readRegister
 108              	.LVL16:
 138:main.c        ****     sprintf(bufferUART, " Control register 1 has been set to = 0x%02X \r\n", ctrl_reg1);
 109              		.loc 1 138 0
 110 0062 0246     		mov	r2, r0
 111 0064 9549     		ldr	r1, .L14+24
 112 0066 2046     		mov	r0, r4
 113              	.LVL17:
 114 0068 FFF7FEFF 		bl	sprintf
 115              	.LVL18:
 139:main.c        ****     UART_1_PutBuffer;
 116              		.loc 1 139 0
 117 006c 2046     		mov	r0, r4
 118 006e FFF7FEFF 		bl	UART_1_PutString
 119              	.LVL19:
 140:main.c        ****     
 141:main.c        ****     /* Setting Control Register 5 */
 142:main.c        ****             
 143:main.c        ****     uint8_t ctrl_reg5;    
 144:main.c        ****     //Enable the FIFO 
 145:main.c        ****     ACC_writeRegister(LIS3DH_CTRL_REG5, LIS3DH_CTRL_REG5_FIFO_EN); //|LIS3DH_CTRL_REG5_LIR_INT1
 120              		.loc 1 145 0
 121 0072 4021     		movs	r1, #64
 122 0074 2420     		movs	r0, #36
 123 0076 FFF7FEFF 		bl	ACC_writeRegister
 124              	.LVL20:
 146:main.c        ****                 
 147:main.c        ****     ctrl_reg5 = ACC_readRegister(LIS3DH_CTRL_REG5);
 125              		.loc 1 147 0
 126 007a 2420     		movs	r0, #36
 127 007c FFF7FEFF 		bl	ACC_readRegister
 128              	.LVL21:
 148:main.c        ****     sprintf(bufferUART, " Control register 5 has been set to = 0x%02X \r\n", ctrl_reg5);
 129              		.loc 1 148 0
 130 0080 0246     		mov	r2, r0
 131 0082 8F49     		ldr	r1, .L14+28
 132 0084 2046     		mov	r0, r4
 133              	.LVL22:
 134 0086 FFF7FEFF 		bl	sprintf
 135              	.LVL23:
 149:main.c        ****     UART_1_PutBuffer;
 136              		.loc 1 149 0
ARM GAS  C:\Users\Ilaria\AppData\Local\Temp\ccNHqM6j.s 			page 6


 137 008a 2046     		mov	r0, r4
 138 008c FFF7FEFF 		bl	UART_1_PutString
 139              	.LVL24:
 150:main.c        ****     
 151:main.c        ****      /* Setting Control Register of FIFO */
 152:main.c        ****     uint8_t ctrl1_FIFO;    
 153:main.c        ****     //Enable the Stream mode for FIFO and latch int1
 154:main.c        ****     ACC_writeRegister(LIS3DH_FIFO_CTRL_REG, LIS3DH_FIFO_CTRL_REG_STRM_MODE);
 140              		.loc 1 154 0
 141 0090 8021     		movs	r1, #128
 142 0092 2E20     		movs	r0, #46
 143 0094 FFF7FEFF 		bl	ACC_writeRegister
 144              	.LVL25:
 155:main.c        ****                 
 156:main.c        ****     ctrl1_FIFO = ACC_readRegister(LIS3DH_FIFO_CTRL_REG);
 145              		.loc 1 156 0
 146 0098 2E20     		movs	r0, #46
 147 009a FFF7FEFF 		bl	ACC_readRegister
 148              	.LVL26:
 157:main.c        ****     sprintf(bufferUART, " Control register of FIFO has been set to = 0x%02X \r\n", ctrl1_FIFO);
 149              		.loc 1 157 0
 150 009e 0246     		mov	r2, r0
 151 00a0 8849     		ldr	r1, .L14+32
 152 00a2 2046     		mov	r0, r4
 153              	.LVL27:
 154 00a4 FFF7FEFF 		bl	sprintf
 155              	.LVL28:
 158:main.c        ****     UART_1_PutBuffer;
 156              		.loc 1 158 0
 157 00a8 2046     		mov	r0, r4
 158 00aa FFF7FEFF 		bl	UART_1_PutString
 159              	.LVL29:
 159:main.c        ****     
 160:main.c        ****     /* Setting Control Register 3 */
 161:main.c        **** 
 162:main.c        ****     uint8_t ctrl_reg3;
 163:main.c        ****     
 164:main.c        ****     //Enable FIFO Overrun interrupt on INT1.
 165:main.c        ****     ACC_writeRegister(LIS3DH_CTRL_REG3, LIS3DH_CTRL_REG3_FIFO_OVERRUN);
 160              		.loc 1 165 0
 161 00ae 0221     		movs	r1, #2
 162 00b0 2220     		movs	r0, #34
 163 00b2 FFF7FEFF 		bl	ACC_writeRegister
 164              	.LVL30:
 166:main.c        ****     
 167:main.c        ****     ctrl_reg3 = ACC_readRegister(LIS3DH_CTRL_REG3);
 165              		.loc 1 167 0
 166 00b6 2220     		movs	r0, #34
 167 00b8 FFF7FEFF 		bl	ACC_readRegister
 168              	.LVL31:
 168:main.c        ****     sprintf(bufferUART, " Control register 3 has been set to = 0x%02X \r\n", ctrl_reg3);
 169              		.loc 1 168 0
 170 00bc 0246     		mov	r2, r0
 171 00be 8249     		ldr	r1, .L14+36
 172 00c0 2046     		mov	r0, r4
 173              	.LVL32:
 174 00c2 FFF7FEFF 		bl	sprintf
ARM GAS  C:\Users\Ilaria\AppData\Local\Temp\ccNHqM6j.s 			page 7


 175              	.LVL33:
 169:main.c        ****     UART_1_PutBuffer;
 176              		.loc 1 169 0
 177 00c6 2046     		mov	r0, r4
 178 00c8 FFF7FEFF 		bl	UART_1_PutString
 179              	.LVL34:
 170:main.c        ****     
 171:main.c        ****     UART_1_PutString("********************************************\r\n");
 180              		.loc 1 171 0
 181 00cc 7F48     		ldr	r0, .L14+40
 182 00ce FFF7FEFF 		bl	UART_1_PutString
 183              	.LVL35:
 172:main.c        ****     /**/
 173:main.c        ****             
 174:main.c        ****     
 175:main.c        ****     uint8_t data_read; //data read from EEPROM
 176:main.c        ****     uint8_t fifo_src_reg;
 177:main.c        ****     uint8_t FIFO_data[192];
 178:main.c        ****     
 179:main.c        ****     //save counter in EEPROM at the address of COUNTER_ADD
 180:main.c        ****     EEPROM_writeByte(COUNTER_AD, counter);
 184              		.loc 1 180 0
 185 00d2 7F4B     		ldr	r3, .L14+44
 186 00d4 1988     		ldrh	r1, [r3]
 187 00d6 C9B2     		uxtb	r1, r1
 188 00d8 0320     		movs	r0, #3
 189 00da FFF7FEFF 		bl	EEPROM_writeByte
 190              	.LVL36:
 181:main.c        ****     EEPROM_waitForWriteComplete();
 191              		.loc 1 181 0
 192 00de FFF7FEFF 		bl	EEPROM_waitForWriteComplete
 193              	.LVL37:
 182:main.c        ****         
 183:main.c        ****     // show the menu
 184:main.c        ****     show_menu();
 194              		.loc 1 184 0
 195 00e2 FFF7FEFF 		bl	show_menu
 196              	.LVL38:
 185:main.c        ****     
 186:main.c        ****     //Cleaning FIFO buffer
 187:main.c        ****     uint8_t cleaning[6];
 188:main.c        ****     
 189:main.c        ****     while (ACC_readRegister(LIS3DH_FIFO_SRC_REG) == 0x20)
 197              		.loc 1 189 0
 198 00e6 04E0     		b	.L2
 199              	.L3:
 190:main.c        ****     {
 191:main.c        ****         ACC_Multi_Read(LIS3DH_OUT_X_L, (uint8_t*) cleaning, 6);
 200              		.loc 1 191 0
 201 00e8 0622     		movs	r2, #6
 202 00ea 6946     		mov	r1, sp
 203 00ec 2820     		movs	r0, #40
 204 00ee FFF7FEFF 		bl	ACC_Multi_Read
 205              	.LVL39:
 206              	.L2:
 189:main.c        ****     {
 207              		.loc 1 189 0
ARM GAS  C:\Users\Ilaria\AppData\Local\Temp\ccNHqM6j.s 			page 8


 208 00f2 2F20     		movs	r0, #47
 209 00f4 FFF7FEFF 		bl	ACC_readRegister
 210              	.LVL40:
 211 00f8 2028     		cmp	r0, #32
 212 00fa F5D0     		beq	.L3
 192:main.c        ****     }
 193:main.c        ****     sprintf(bufferUART, "\r\n FIFO clean \r\n");
 213              		.loc 1 193 0
 214 00fc 6C4D     		ldr	r5, .L14+12
 215 00fe 754C     		ldr	r4, .L14+48
 216 0100 0FCC     		ldmia	r4!, {r0, r1, r2, r3}
 217 0102 2860     		str	r0, [r5]	@ unaligned
 218 0104 6960     		str	r1, [r5, #4]	@ unaligned
 219 0106 AA60     		str	r2, [r5, #8]	@ unaligned
 220 0108 EB60     		str	r3, [r5, #12]	@ unaligned
 221 010a 2378     		ldrb	r3, [r4]	@ zero_extendqisi2
 222 010c 2B74     		strb	r3, [r5, #16]
 194:main.c        ****     UART_1_PutBuffer; 
 223              		.loc 1 194 0
 224 010e 2846     		mov	r0, r5
 225 0110 FFF7FEFF 		bl	UART_1_PutString
 226              	.LVL41:
 195:main.c        ****     
 196:main.c        **** 
 197:main.c        ****     
 198:main.c        ****     ///Function for send Data to be sent to BRIDGE CONTROL PANEL        
 199:main.c        ****   
 200:main.c        ****     //SENT TO UART
 201:main.c        ****     // 
 202:main.c        ****     ///////////////////////////////////////////////////////////////////
 203:main.c        ****     FSRFlag = 0;
 227              		.loc 1 203 0
 228 0114 0024     		movs	r4, #0
 229 0116 704B     		ldr	r3, .L14+52
 230 0118 1C70     		strb	r4, [r3]
 204:main.c        ****     SamplingFreqFlag = 0;
 231              		.loc 1 204 0
 232 011a 704B     		ldr	r3, .L14+56
 233 011c 1C70     		strb	r4, [r3]
 205:main.c        ****     StartFlag = 0;
 234              		.loc 1 205 0
 235 011e 704B     		ldr	r3, .L14+60
 236 0120 1C70     		strb	r4, [r3]
 206:main.c        ****     uint8_t onoff_initial;
 207:main.c        ****     uint8_t data_add;
 208:main.c        ****     uint8_t fsr_init;
 209:main.c        ****     uint8_t sf_init;
 210:main.c        ****     uint8_t data[8] = {0,0,0,0,0,0,0,0};
 211:main.c        ****     uint8_t data_read_array[DATA_BYTES_EEPROM]= {0,0,0,0,0,0};
 212:main.c        ****     
 213:main.c        ****     
 214:main.c        ****     // Inizializzazioni START STOP 
 215:main.c        **** //    onoff_initial = EEPROM_readByte(ONOFF_ADD);
 216:main.c        **** //    if (onoff_initial & ON)
 217:main.c        **** //    {
 218:main.c        **** //        StartFlag = START;
 219:main.c        **** //    }
ARM GAS  C:\Users\Ilaria\AppData\Local\Temp\ccNHqM6j.s 			page 9


 220:main.c        **** //    else if(onoff_initial & OFF)
 221:main.c        **** //    {
 222:main.c        **** //        StartFlag = STOP;
 223:main.c        **** //    }
 224:main.c        **** //    else
 225:main.c        **** //    {
 226:main.c        **** //        EEPROM_writeByte(ONOFF_ADD, OFF);
 227:main.c        **** //        EEPROM_waitForWriteComplete();
 228:main.c        **** //    }  
 229:main.c        **** //    
 230:main.c        **** //    data_add = EEPROM_readByte(COUNTER_AD);
 231:main.c        **** //    fsr_init = EEPROM_readByte(ACC_CONFIG_FSR_AD);
 232:main.c        **** //    if (data_add < FIRST_DATA_ADDR)
 233:main.c        **** //    {
 234:main.c        **** //        EEPROM_writeByte(ACC_CONFIG_FSR_AD, LIS3DH_CTRL_REG4_FSR_2);
 235:main.c        **** //        EEPROM_writeByte(ACC_CONFIG_SF_AD, LIS3DH_CTRL_REG1_ODR_START_1HZ);
 236:main.c        **** //        EEPROM_writeByte(COUNTER_AD, FIRST_DATA_ADDR);
 237:main.c        **** //        EEPROM_waitForWriteComplete();        
 238:main.c        **** //    }
 239:main.c        **** //    else
 240:main.c        **** //    {
 241:main.c        **** //        counter = data_add;
 242:main.c        **** //        FSRFlag = fsr_init;
 243:main.c        **** //        SamplingFreqFlag = sf_init;
 244:main.c        **** //    }
 245:main.c        **** //      
 246:main.c        ****     
 247:main.c        ****     //PER FEDE
 248:main.c        ****     EEPROM_writeByte(ONOFF_ADD, OFF);
 237              		.loc 1 248 0
 238 0122 4021     		movs	r1, #64
 239 0124 0220     		movs	r0, #2
 240 0126 FFF7FEFF 		bl	EEPROM_writeByte
 241              	.LVL42:
 249:main.c        ****     EEPROM_waitForWriteComplete();
 242              		.loc 1 249 0
 243 012a FFF7FEFF 		bl	EEPROM_waitForWriteComplete
 244              	.LVL43:
 250:main.c        ****     EEPROM_writeByte(COUNTER_AD, FIRST_DATA_ADDR);
 245              		.loc 1 250 0
 246 012e 0421     		movs	r1, #4
 247 0130 0320     		movs	r0, #3
 248 0132 FFF7FEFF 		bl	EEPROM_writeByte
 249              	.LVL44:
 251:main.c        ****     EEPROM_waitForWriteComplete();
 250              		.loc 1 251 0
 251 0136 FFF7FEFF 		bl	EEPROM_waitForWriteComplete
 252              	.LVL45:
 252:main.c        ****     EEPROM_writeByte(ACC_CONFIG_FSR_AD, LIS3DH_CTRL_REG4_FSR_2);
 253              		.loc 1 252 0
 254 013a 8021     		movs	r1, #128
 255 013c 2046     		mov	r0, r4
 256 013e FFF7FEFF 		bl	EEPROM_writeByte
 257              	.LVL46:
 253:main.c        ****     EEPROM_waitForWriteComplete();
 258              		.loc 1 253 0
 259 0142 FFF7FEFF 		bl	EEPROM_waitForWriteComplete
ARM GAS  C:\Users\Ilaria\AppData\Local\Temp\ccNHqM6j.s 			page 10


 260              	.LVL47:
 254:main.c        ****     EEPROM_writeByte(ACC_CONFIG_SF_AD, LIS3DH_CTRL_REG1_ODR_START_1HZ);
 261              		.loc 1 254 0
 262 0146 1721     		movs	r1, #23
 263 0148 0120     		movs	r0, #1
 264 014a FFF7FEFF 		bl	EEPROM_writeByte
 265              	.LVL48:
 255:main.c        ****     EEPROM_waitForWriteComplete();    
 266              		.loc 1 255 0
 267 014e FFF7FEFF 		bl	EEPROM_waitForWriteComplete
 268              	.LVL49:
 269              	.L11:
 256:main.c        ****     ///////////////////////////////////////////////////////////////////
 257:main.c        ****     
 258:main.c        ****     for(;;){
 259:main.c        ****         
 260:main.c        ****         fifo_src_reg = ACC_readRegister(LIS3DH_FIFO_SRC_REG);     
 270              		.loc 1 260 0
 271 0152 2F20     		movs	r0, #47
 272 0154 FFF7FEFF 		bl	ACC_readRegister
 273              	.LVL50:
 261:main.c        ****             
 262:main.c        ****         
 263:main.c        ****         if ( fifo_src_reg & LIS3DH_FIFO_SRC_REG_OVRN_FIFO )       
 274              		.loc 1 263 0
 275 0158 10F0400F 		tst	r0, #64
 276 015c 46D0     		beq	.L4
 264:main.c        ****            {              
 265:main.c        ****             ACC_Multi_Read(LIS3DH_OUT_X_L, (uint8_t*) FIFO_data, 192); 
 277              		.loc 1 265 0
 278 015e C022     		movs	r2, #192
 279 0160 02A9     		add	r1, sp, #8
 280 0162 2820     		movs	r0, #40
 281              	.LVL51:
 282 0164 FFF7FEFF 		bl	ACC_Multi_Read
 283              	.LVL52:
 266:main.c        ****             
 267:main.c        ****             fifo_src_reg = ACC_readRegister(LIS3DH_FIFO_SRC_REG);
 284              		.loc 1 267 0
 285 0168 2F20     		movs	r0, #47
 286 016a FFF7FEFF 		bl	ACC_readRegister
 287              	.LVL53:
 268:main.c        ****             sprintf(bufferUART, " fifo_src_reg dopo la multiread 0x%02X  \r\n", fifo_src_reg);
 288              		.loc 1 268 0
 289 016e 504D     		ldr	r5, .L14+12
 290 0170 0246     		mov	r2, r0
 291 0172 5C49     		ldr	r1, .L14+64
 292 0174 2846     		mov	r0, r5
 293              	.LVL54:
 294 0176 FFF7FEFF 		bl	sprintf
 295              	.LVL55:
 269:main.c        ****             UART_1_PutBuffer;
 296              		.loc 1 269 0
 297 017a 2846     		mov	r0, r5
 298 017c FFF7FEFF 		bl	UART_1_PutString
 299              	.LVL56:
 270:main.c        ****             
ARM GAS  C:\Users\Ilaria\AppData\Local\Temp\ccNHqM6j.s 			page 11


 271:main.c        ****             sprintf(bufferUART, " Primi 63 valori del buffer: \r\n");
 300              		.loc 1 271 0
 301 0180 594C     		ldr	r4, .L14+68
 302 0182 0FCC     		ldmia	r4!, {r0, r1, r2, r3}
 303 0184 2860     		str	r0, [r5]	@ unaligned
 304 0186 6960     		str	r1, [r5, #4]	@ unaligned
 305 0188 AA60     		str	r2, [r5, #8]	@ unaligned
 306 018a EB60     		str	r3, [r5, #12]	@ unaligned
 307 018c 0FCC     		ldmia	r4!, {r0, r1, r2, r3}
 308 018e 2861     		str	r0, [r5, #16]	@ unaligned
 309 0190 6961     		str	r1, [r5, #20]	@ unaligned
 310 0192 AA61     		str	r2, [r5, #24]	@ unaligned
 311 0194 EB61     		str	r3, [r5, #28]	@ unaligned
 272:main.c        ****             UART_1_PutBuffer;   
 312              		.loc 1 272 0
 313 0196 2846     		mov	r0, r5
 314 0198 FFF7FEFF 		bl	UART_1_PutString
 315              	.LVL57:
 316              	.LBB2:
 273:main.c        ****                 
 274:main.c        ****             for (uint i=0; i<192; i++)
 317              		.loc 1 274 0
 318 019c 0024     		movs	r4, #0
 319 019e 0CE0     		b	.L5
 320              	.LVL58:
 321              	.L6:
 275:main.c        ****             {
 276:main.c        ****                 sprintf(bufferUART, " %d ", FIFO_data[i]);
 322              		.loc 1 276 0 discriminator 3
 323 01a0 32AB     		add	r3, sp, #200
 324 01a2 2344     		add	r3, r3, r4
 325 01a4 424D     		ldr	r5, .L14+12
 326 01a6 13F8C02C 		ldrb	r2, [r3, #-192]	@ zero_extendqisi2
 327 01aa 5049     		ldr	r1, .L14+72
 328 01ac 2846     		mov	r0, r5
 329 01ae FFF7FEFF 		bl	sprintf
 330              	.LVL59:
 277:main.c        ****                 UART_1_PutBuffer;
 331              		.loc 1 277 0 discriminator 3
 332 01b2 2846     		mov	r0, r5
 333 01b4 FFF7FEFF 		bl	UART_1_PutString
 334              	.LVL60:
 274:main.c        ****             {
 335              		.loc 1 274 0 discriminator 3
 336 01b8 0134     		adds	r4, r4, #1
 337              	.LVL61:
 338              	.L5:
 274:main.c        ****             {
 339              		.loc 1 274 0 is_stmt 0 discriminator 1
 340 01ba BF2C     		cmp	r4, #191
 341 01bc F0D9     		bls	.L6
 342              	.LBE2:
 278:main.c        ****             }
 279:main.c        ****             
 280:main.c        ****                                 
 281:main.c        ****             ACC_writeRegister(LIS3DH_FIFO_CTRL_REG, LIS3DH_FIFO_CTRL_REG_BYPASS_MODE);  
 343              		.loc 1 281 0 is_stmt 1
ARM GAS  C:\Users\Ilaria\AppData\Local\Temp\ccNHqM6j.s 			page 12


 344 01be 0021     		movs	r1, #0
 345 01c0 2E20     		movs	r0, #46
 346 01c2 FFF7FEFF 		bl	ACC_writeRegister
 347              	.LVL62:
 282:main.c        ****             CyDelayUs(2);
 348              		.loc 1 282 0
 349 01c6 0220     		movs	r0, #2
 350 01c8 FFF7FEFF 		bl	CyDelayUs
 351              	.LVL63:
 283:main.c        ****             ACC_writeRegister(LIS3DH_FIFO_CTRL_REG, LIS3DH_FIFO_CTRL_REG_FIFO_MODE);
 352              		.loc 1 283 0
 353 01cc 4021     		movs	r1, #64
 354 01ce 2E20     		movs	r0, #46
 355 01d0 FFF7FEFF 		bl	ACC_writeRegister
 356              	.LVL64:
 284:main.c        ****             
 285:main.c        ****             fifo_src_reg = ACC_readRegister(LIS3DH_FIFO_SRC_REG);
 357              		.loc 1 285 0
 358 01d4 2F20     		movs	r0, #47
 359 01d6 FFF7FEFF 		bl	ACC_readRegister
 360              	.LVL65:
 286:main.c        ****             sprintf(bufferUART, "\r\n fifo_src_reg dopo il reset 0x%02X  \r\n", fifo_src_reg);
 361              		.loc 1 286 0
 362 01da 354C     		ldr	r4, .L14+12
 363              	.LVL66:
 364 01dc 0246     		mov	r2, r0
 365 01de 4449     		ldr	r1, .L14+76
 366 01e0 2046     		mov	r0, r4
 367              	.LVL67:
 368 01e2 FFF7FEFF 		bl	sprintf
 369              	.LVL68:
 287:main.c        ****             UART_1_PutBuffer;
 370              		.loc 1 287 0
 371 01e6 2046     		mov	r0, r4
 372 01e8 FFF7FEFF 		bl	UART_1_PutString
 373              	.LVL69:
 374              	.L4:
 288:main.c        ****         }
 289:main.c        ****         
 290:main.c        ****         /* EEPROM */
 291:main.c        ****         // save new configuration in EEPROM memory:    
 292:main.c        ****         
 293:main.c        ****         // FSR configuration
 294:main.c        ****         if((FSRFlag != 0 )&&(FSRFlag != 1 ))
 375              		.loc 1 294 0
 376 01ec 3A4B     		ldr	r3, .L14+52
 377 01ee 1B78     		ldrb	r3, [r3]	@ zero_extendqisi2
 378 01f0 13F0FF0F 		tst	r3, #255
 379 01f4 0ED0     		beq	.L7
 380              		.loc 1 294 0 is_stmt 0 discriminator 1
 381 01f6 384B     		ldr	r3, .L14+52
 382 01f8 1B78     		ldrb	r3, [r3]	@ zero_extendqisi2
 383 01fa DBB2     		uxtb	r3, r3
 384 01fc 012B     		cmp	r3, #1
 385 01fe 09D0     		beq	.L7
 295:main.c        ****         {
 296:main.c        ****             Config_acc(counter, FSRFlag, ACC_CONFIG_FSR_AD);           //stores new config data if 
ARM GAS  C:\Users\Ilaria\AppData\Local\Temp\ccNHqM6j.s 			page 13


 386              		.loc 1 296 0 is_stmt 1
 387 0200 334B     		ldr	r3, .L14+44
 388 0202 1888     		ldrh	r0, [r3]
 389 0204 344C     		ldr	r4, .L14+52
 390 0206 2178     		ldrb	r1, [r4]	@ zero_extendqisi2
 391 0208 0022     		movs	r2, #0
 392 020a C0B2     		uxtb	r0, r0
 393 020c FFF7FEFF 		bl	Config_acc
 394              	.LVL70:
 297:main.c        ****             FSRFlag = 0;
 395              		.loc 1 297 0
 396 0210 0023     		movs	r3, #0
 397 0212 2370     		strb	r3, [r4]
 398              	.L7:
 298:main.c        ****         }
 299:main.c        ****         
 300:main.c        ****         // Sampling Frequency configuration
 301:main.c        ****         if ((SamplingFreqFlag != 0)&&(SamplingFreqFlag != 1 ))
 399              		.loc 1 301 0
 400 0214 314B     		ldr	r3, .L14+56
 401 0216 1B78     		ldrb	r3, [r3]	@ zero_extendqisi2
 402 0218 13F0FF0F 		tst	r3, #255
 403 021c 0ED0     		beq	.L8
 404              		.loc 1 301 0 is_stmt 0 discriminator 1
 405 021e 2F4B     		ldr	r3, .L14+56
 406 0220 1B78     		ldrb	r3, [r3]	@ zero_extendqisi2
 407 0222 DBB2     		uxtb	r3, r3
 408 0224 012B     		cmp	r3, #1
 409 0226 09D0     		beq	.L8
 302:main.c        ****         {
 303:main.c        ****             Config_acc(counter, SamplingFreqFlag, ACC_CONFIG_SF_AD);  //stores new config data if t
 410              		.loc 1 303 0 is_stmt 1
 411 0228 294B     		ldr	r3, .L14+44
 412 022a 1888     		ldrh	r0, [r3]
 413 022c 2B4C     		ldr	r4, .L14+56
 414 022e 2178     		ldrb	r1, [r4]	@ zero_extendqisi2
 415 0230 0122     		movs	r2, #1
 416 0232 C0B2     		uxtb	r0, r0
 417 0234 FFF7FEFF 		bl	Config_acc
 418              	.LVL71:
 304:main.c        ****             SamplingFreqFlag = 0;
 419              		.loc 1 304 0
 420 0238 0023     		movs	r3, #0
 421 023a 2370     		strb	r3, [r4]
 422              	.L8:
 305:main.c        ****         }
 306:main.c        **** 
 307:main.c        ****         //If acquisition is started from user
 308:main.c        ****         if(StartFlag == START)
 423              		.loc 1 308 0
 424 023c 284B     		ldr	r3, .L14+60
 425 023e 1B78     		ldrb	r3, [r3]	@ zero_extendqisi2
 426 0240 DBB2     		uxtb	r3, r3
 427 0242 012B     		cmp	r3, #1
 428 0244 11D1     		bne	.L9
 309:main.c        ****         { 
 310:main.c        ****             EEPROM_writeByte(ONOFF_ADD, ON);
ARM GAS  C:\Users\Ilaria\AppData\Local\Temp\ccNHqM6j.s 			page 14


 429              		.loc 1 310 0
 430 0246 8021     		movs	r1, #128
 431 0248 0220     		movs	r0, #2
 432 024a FFF7FEFF 		bl	EEPROM_writeByte
 433              	.LVL72:
 311:main.c        ****             EEPROM_waitForWriteComplete();
 434              		.loc 1 311 0
 435 024e FFF7FEFF 		bl	EEPROM_waitForWriteComplete
 436              	.LVL73:
 312:main.c        ****             UART_1_PutString("** EEPROM Status ON ** \r\n");
 437              		.loc 1 312 0
 438 0252 2848     		ldr	r0, .L14+80
 439 0254 FFF7FEFF 		bl	UART_1_PutString
 440              	.LVL74:
 313:main.c        ****             
 314:main.c        ****             counter= counter+DATA_BYTES_EEPROM;
 441              		.loc 1 314 0
 442 0258 1D4A     		ldr	r2, .L14+44
 443 025a 1388     		ldrh	r3, [r2]
 444 025c 9BB2     		uxth	r3, r3
 445 025e 0633     		adds	r3, r3, #6
 446 0260 9BB2     		uxth	r3, r3
 447 0262 1380     		strh	r3, [r2]	@ movhi
 315:main.c        ****             StartFlag =  2;  //exit from flag of START/stop
 448              		.loc 1 315 0
 449 0264 0222     		movs	r2, #2
 450 0266 1E4B     		ldr	r3, .L14+60
 451 0268 1A70     		strb	r2, [r3]
 452              	.L9:
 316:main.c        ****             
 317:main.c        ****             /* Storing data in EEPROM */
 318:main.c        ****             //Data to store in EEPROM: 4 bytes accelerometer (transform from 6 to 4 bytes) + 2bytes
 319:main.c        ****             //Data operations--> obtain data_EEPROM
 320:main.c        ****             
 321:main.c        **** //            data[6] = DataBuffer[5]; 
 322:main.c        **** //            data[7] = DataBuffer[6]; 
 323:main.c        **** //            
 324:main.c        **** //            Store_EEPROM(data, data_EE);
 325:main.c        **** //            sprintf(bufferUART, "** Data_EE Read = 0x%02x 0x%02x 0x%02x 0x%02x 0x%02x 0x%02x \r\n
 326:main.c        **** //            UART_1_PutBuffer;
 327:main.c        **** //            
 328:main.c        **** //            EEPROM_writePage(counter, (uint8_t*) data_EE, DATA_BYTES_EEPROM);
 329:main.c        **** //            EEPROM_waitForWriteComplete();
 330:main.c        **** //
 331:main.c        **** //            EEPROM_readPage(counter, (uint8_t*) data_read_array, DATA_BYTES_EEPROM);
 332:main.c        **** //            sprintf(bufferUART, "** EEPROM Read = 0x%02x 0x%02x 0x%02x 0x%02x 0x%02x 0x%02x \r\n"
 333:main.c        **** //            UART_1_PutBuffer;
 334:main.c        ****            
 335:main.c        ****             //Storing new set of data in EEPROM
 336:main.c        ****             //EPROM_writePage((FIRST_DATA_ADDR + counter), (uint8_t*) data_EEPROM, DATA_BYTES_EEPRO
 337:main.c        ****             //EEPROM_waitForWriteComplete();
 338:main.c        ****             
 339:main.c        ****             
 340:main.c        ****             //update the storage counter in EEPROM at the address of COUNTER_ADD
 341:main.c        **** //            counter= counter+DATA_BYTES_EEPROM;
 342:main.c        **** //            EEPROM_writeByte(COUNTER_AD, counter);
 343:main.c        **** //            EEPROM_waitForWriteComplete();
ARM GAS  C:\Users\Ilaria\AppData\Local\Temp\ccNHqM6j.s 			page 15


 344:main.c        ****         }
 345:main.c        ****         
 346:main.c        ****         //If acquisition is stopped from user
 347:main.c        ****         if(StartFlag==STOP)
 453              		.loc 1 347 0
 454 026a 1D4B     		ldr	r3, .L14+60
 455 026c 1B78     		ldrb	r3, [r3]	@ zero_extendqisi2
 456 026e 13F0FF0F 		tst	r3, #255
 457 0272 0BD1     		bne	.L10
 348:main.c        ****         {       
 349:main.c        ****             EEPROM_writeByte(ONOFF_ADD, OFF);
 458              		.loc 1 349 0
 459 0274 4021     		movs	r1, #64
 460 0276 0220     		movs	r0, #2
 461 0278 FFF7FEFF 		bl	EEPROM_writeByte
 462              	.LVL75:
 350:main.c        ****             EEPROM_waitForWriteComplete();
 463              		.loc 1 350 0
 464 027c FFF7FEFF 		bl	EEPROM_waitForWriteComplete
 465              	.LVL76:
 351:main.c        ****             UART_1_PutString("** EEPROM Status OFF ** \r\n");
 466              		.loc 1 351 0
 467 0280 1D48     		ldr	r0, .L14+84
 468 0282 FFF7FEFF 		bl	UART_1_PutString
 469              	.LVL77:
 352:main.c        **** 
 353:main.c        ****             StartFlag = 2; //exit from flag of START/stop
 470              		.loc 1 353 0
 471 0286 0222     		movs	r2, #2
 472 0288 154B     		ldr	r3, .L14+60
 473 028a 1A70     		strb	r2, [r3]
 474              	.L10:
 354:main.c        ****         }
 355:main.c        ****             
 356:main.c        ****         //Reset counter if the EEPROM storage is full
 357:main.c        ****         
 358:main.c        ****         if ((int)counter > (int)(HIGHEST_ADDRESS-DATA_BYTES_EEPROM+1))
 475              		.loc 1 358 0
 476 028c 104B     		ldr	r3, .L14+44
 477 028e 1B88     		ldrh	r3, [r3]
 478 0290 9BB2     		uxth	r3, r3
 479 0292 47F6FA72 		movw	r2, #32762
 480 0296 9342     		cmp	r3, r2
 481 0298 7FF65BAF 		bls	.L11
 359:main.c        ****         {
 360:main.c        ****             counter = FIRST_DATA_ADDR;
 482              		.loc 1 360 0
 483 029c 0422     		movs	r2, #4
 484 029e 0C4B     		ldr	r3, .L14+44
 485 02a0 1A80     		strh	r2, [r3]	@ movhi
 486 02a2 56E7     		b	.L11
 487              	.L15:
 488              		.align	2
 489              	.L14:
 490 02a4 00000000 		.word	Custom_ISR_RX
 491 02a8 00000000 		.word	Custom_ISR_ADC
 492 02ac 00000000 		.word	Custom_ISR_Button
ARM GAS  C:\Users\Ilaria\AppData\Local\Temp\ccNHqM6j.s 			page 16


 493 02b0 00000000 		.word	bufferUART
 494 02b4 00000000 		.word	.LC0
 495 02b8 34000000 		.word	.LC1
 496 02bc 64000000 		.word	.LC2
 497 02c0 94000000 		.word	.LC3
 498 02c4 C4000000 		.word	.LC4
 499 02c8 FC000000 		.word	.LC5
 500 02cc 2C010000 		.word	.LC6
 501 02d0 00000000 		.word	counter
 502 02d4 5C010000 		.word	.LC7
 503 02d8 00000000 		.word	FSRFlag
 504 02dc 00000000 		.word	SamplingFreqFlag
 505 02e0 00000000 		.word	StartFlag
 506 02e4 70010000 		.word	.LC8
 507 02e8 9C010000 		.word	.LC9
 508 02ec BC010000 		.word	.LC10
 509 02f0 C4010000 		.word	.LC11
 510 02f4 F0010000 		.word	.LC12
 511 02f8 0C020000 		.word	.LC13
 512              		.cfi_endproc
 513              	.LFE64:
 514              		.size	main, .-main
 515              		.comm	fifo_src_reg,1,1
 516              		.comm	counter,2,2
 517              		.comm	data_BCP,10,4
 518              		.comm	data_EE,6,4
 519              		.comm	datiAcc,8,4
 520              		.comm	count_wtm,4,4
 521              		.comm	value_temp,4,4
 522              		.comm	DataBuffer,10,4
 523              		.comm	SamplingFreqFlag,1,1
 524              		.comm	FSRFlag,1,1
 525              		.comm	StartFlag,1,1
 526              		.comm	PacketReadyFlag,1,1
 527              		.comm	bufferUART,100,4
 528              		.section	.rodata.str1.4,"aMS",%progbits,1
 529              		.align	2
 530              	.LC0:
 531 0000 2A2A2057 		.ascii	"** Who am I register = 0x%02X [Expected: 0x33]\015\012"
 531      686F2061 
 531      6D204920 
 531      72656769 
 531      73746572 
 532 0030 00       		.ascii	"\000"
 533 0031 000000   		.space	3
 534              	.LC1:
 535 0034 2A2A2A2A 		.ascii	"**************Registers Values**************\015\012"
 535      2A2A2A2A 
 535      2A2A2A2A 
 535      2A2A5265 
 535      67697374 
 536 0062 00       		.ascii	"\000"
 537 0063 00       		.space	1
 538              	.LC2:
 539 0064 20436F6E 		.ascii	" Control register 1 has been set to = 0x%02X \015\012"
 539      74726F6C 
 539      20726567 
ARM GAS  C:\Users\Ilaria\AppData\Local\Temp\ccNHqM6j.s 			page 17


 539      69737465 
 539      72203120 
 540 0093 00       		.ascii	"\000"
 541              	.LC3:
 542 0094 20436F6E 		.ascii	" Control register 5 has been set to = 0x%02X \015\012"
 542      74726F6C 
 542      20726567 
 542      69737465 
 542      72203520 
 543 00c3 00       		.ascii	"\000"
 544              	.LC4:
 545 00c4 20436F6E 		.ascii	" Control register of FIFO has been set to = 0x%02X "
 545      74726F6C 
 545      20726567 
 545      69737465 
 545      72206F66 
 546 00f7 0D0A00   		.ascii	"\015\012\000"
 547 00fa 0000     		.space	2
 548              	.LC5:
 549 00fc 20436F6E 		.ascii	" Control register 3 has been set to = 0x%02X \015\012"
 549      74726F6C 
 549      20726567 
 549      69737465 
 549      72203320 
 550 012b 00       		.ascii	"\000"
 551              	.LC6:
 552 012c 2A2A2A2A 		.ascii	"********************************************\015\012"
 552      2A2A2A2A 
 552      2A2A2A2A 
 552      2A2A2A2A 
 552      2A2A2A2A 
 553 015a 00       		.ascii	"\000"
 554 015b 00       		.space	1
 555              	.LC7:
 556 015c 0D0A2046 		.ascii	"\015\012 FIFO clean \015\012\000"
 556      49464F20 
 556      636C6561 
 556      6E200D0A 
 556      00
 557 016d 000000   		.space	3
 558              	.LC8:
 559 0170 20666966 		.ascii	" fifo_src_reg dopo la multiread 0x%02X  \015\012\000"
 559      6F5F7372 
 559      635F7265 
 559      6720646F 
 559      706F206C 
 560 019b 00       		.space	1
 561              	.LC9:
 562 019c 20507269 		.ascii	" Primi 63 valori del buffer: \015\012\000"
 562      6D692036 
 562      33207661 
 562      6C6F7269 
 562      2064656C 
 563              	.LC10:
 564 01bc 20256420 		.ascii	" %d \000"
 564      00
 565 01c1 000000   		.space	3
ARM GAS  C:\Users\Ilaria\AppData\Local\Temp\ccNHqM6j.s 			page 18


 566              	.LC11:
 567 01c4 0D0A2066 		.ascii	"\015\012 fifo_src_reg dopo il reset 0x%02X  \015\012"
 567      69666F5F 
 567      7372635F 
 567      72656720 
 567      646F706F 
 568 01ec 00       		.ascii	"\000"
 569 01ed 000000   		.space	3
 570              	.LC12:
 571 01f0 2A2A2045 		.ascii	"** EEPROM Status ON ** \015\012\000"
 571      4550524F 
 571      4D205374 
 571      61747573 
 571      204F4E20 
 572 020a 0000     		.space	2
 573              	.LC13:
 574 020c 2A2A2045 		.ascii	"** EEPROM Status OFF ** \015\012\000"
 574      4550524F 
 574      4D205374 
 574      61747573 
 574      204F4646 
 575              		.text
 576              	.Letext0:
 577              		.file 2 "c:\\program files (x86)\\cypress\\psoc creator\\4.3\\psoc creator\\import\\gnu\\arm\\5.4.
 578              		.file 3 "c:\\program files (x86)\\cypress\\psoc creator\\4.3\\psoc creator\\import\\gnu\\arm\\5.4.
 579              		.file 4 "Generated_Source\\PSoC5/cytypes.h"
 580              		.file 5 "c:\\program files (x86)\\cypress\\psoc creator\\4.3\\psoc creator\\import\\gnu\\arm\\5.4.
 581              		.file 6 "Generated_Source\\PSoC5/core_cm3.h"
 582              		.file 7 "header.h"
 583              		.file 8 "InterruptRoutines.h"
 584              		.file 9 "c:\\program files (x86)\\cypress\\psoc creator\\4.3\\psoc creator\\import\\gnu\\arm\\5.4.
 585              		.file 10 "Generated_Source\\PSoC5/UART_1.h"
 586              		.file 11 "Generated_Source\\PSoC5/SPIM_1.h"
 587              		.file 12 "Generated_Source\\PSoC5/SPIM_2.h"
 588              		.file 13 "Generated_Source\\PSoC5/ADC_DelSig.h"
 589              		.file 14 "Generated_Source\\PSoC5/isr_RX.h"
 590              		.file 15 "Generated_Source\\PSoC5/isr_ADC.h"
 591              		.file 16 "Generated_Source\\PSoC5/PWM_OnboardLED.h"
 592              		.file 17 "Generated_Source\\PSoC5/ISR_Button.h"
 593              		.file 18 "Generated_Source\\PSoC5/CyLib.h"
 594              		.file 19 "LIS3DH.h"
 595              		.file 20 "25LC256.h"
 596              		.file 21 "Functions.h"