ARM GAS  C:\Users\User\AppData\Local\Temp\ccMWb6xO.s 			page 1


   1              		.syntax unified
   2              		.cpu cortex-m3
   3              		.fpu softvfp
   4              		.eabi_attribute 20, 1
   5              		.eabi_attribute 21, 1
   6              		.eabi_attribute 23, 3
   7              		.eabi_attribute 24, 1
   8              		.eabi_attribute 25, 1
   9              		.eabi_attribute 26, 1
  10              		.eabi_attribute 30, 1
  11              		.eabi_attribute 34, 1
  12              		.eabi_attribute 18, 4
  13              		.thumb
  14              		.syntax unified
  15              		.file	"SPI_Interface.c"
  16              		.text
  17              	.Ltext0:
  18              		.cfi_sections	.debug_frame
  19              		.section	.text.SPI_Interface_tradeByte,"ax",%progbits
  20              		.align	2
  21              		.global	SPI_Interface_tradeByte
  22              		.thumb
  23              		.thumb_func
  24              		.type	SPI_Interface_tradeByte, %function
  25              	SPI_Interface_tradeByte:
  26              	.LFB0:
  27              		.file 1 "SPI_Interface.c"
   1:SPI_Interface.c **** /**
   2:SPI_Interface.c ****  * @file SPI_Interface.c
   3:SPI_Interface.c ****  * @brief Functions required to interface with the SPI MASTER (SPIM).
   4:SPI_Interface.c ****  * 
   5:SPI_Interface.c ****  * This source code file contains macros and functions to interface
   6:SPI_Interface.c ****  * with the SPI Master (SPIM) of the PSoC.
   7:SPI_Interface.c ****  *
   8:SPI_Interface.c ****  * @author Mattia Pesenti
   9:SPI_Interface.c ****  * @date April 9, 2020
  10:SPI_Interface.c **** */
  11:SPI_Interface.c **** 
  12:SPI_Interface.c **** /*											 
  13:SPI_Interface.c ****  * NOTE: in the .h Lib of the SPI Slave     		   *
  14:SPI_Interface.c ****  *       you need to define SLAVE_CS_Write  		   *
  15:SPI_Interface.c ****  *       with the name of the Chip Select    		   * 
  16:SPI_Interface.c ****  *       pin (as defined in the Top Design)  		   *
  17:SPI_Interface.c ****  * E.g.: #define SLAVE_CS_Write CS_1_Write (default)   *
  18:SPI_Interface.c **** */
  19:SPI_Interface.c **** 
  20:SPI_Interface.c **** #include "SPI_Interface.h"
  21:SPI_Interface.c **** //#include "LIS3DH.h"
  22:SPI_Interface.c **** //#include "25LC256.h"
  23:SPI_Interface.c **** 
  24:SPI_Interface.c **** /*
  25:SPI_Interface.c **** * @brief Full-Duplex, Single-Operation 1-Byte Trade
  26:SPI_Interface.c **** */
  27:SPI_Interface.c **** uint8_t SPI_Interface_tradeByte(uint8_t byte) {
  28              		.loc 1 27 0
  29              		.cfi_startproc
  30              		@ args = 0, pretend = 0, frame = 0
ARM GAS  C:\Users\User\AppData\Local\Temp\ccMWb6xO.s 			page 2


  31              		@ frame_needed = 0, uses_anonymous_args = 0
  32              	.LVL0:
  33 0000 08B5     		push	{r3, lr}
  34              		.cfi_def_cfa_offset 8
  35              		.cfi_offset 3, -8
  36              		.cfi_offset 14, -4
  28:SPI_Interface.c **** 	
  29:SPI_Interface.c **** 	/* Enable the Slave */
  30:SPI_Interface.c **** //	SLAVE_CS_Write(0);
  31:SPI_Interface.c **** 	
  32:SPI_Interface.c **** 	/* Load the TX Buffer */
  33:SPI_Interface.c **** 	SPIM_1_WriteTxData(byte);
  37              		.loc 1 33 0
  38 0002 FFF7FEFF 		bl	SPIM_1_WriteTxData
  39              	.LVL1:
  40              	.L2:
  34:SPI_Interface.c **** 	
  35:SPI_Interface.c **** 	/* Wait for TX */
  36:SPI_Interface.c ****     while( !(SPIM_1_ReadTxStatus() & SPIM_1_STS_BYTE_COMPLETE) );
  41              		.loc 1 36 0 discriminator 1
  42 0006 FFF7FEFF 		bl	SPIM_1_ReadTxStatus
  43              	.LVL2:
  44 000a 10F0080F 		tst	r0, #8
  45 000e FAD0     		beq	.L2
  37:SPI_Interface.c **** 	
  38:SPI_Interface.c **** 	/* Read the RX Buffer */
  39:SPI_Interface.c **** 	uint8_t data = SPIM_1_ReadRxData();
  46              		.loc 1 39 0
  47 0010 FFF7FEFF 		bl	SPIM_1_ReadRxData
  48              	.LVL3:
  40:SPI_Interface.c **** 	
  41:SPI_Interface.c **** 	/* Disable the Slave */
  42:SPI_Interface.c **** //	SLAVE_CS_Write(1);
  43:SPI_Interface.c **** 	
  44:SPI_Interface.c **** 	return data;
  45:SPI_Interface.c ****     
  46:SPI_Interface.c **** }
  49              		.loc 1 46 0
  50 0014 08BD     		pop	{r3, pc}
  51              		.cfi_endproc
  52              	.LFE0:
  53              		.size	SPI_Interface_tradeByte, .-SPI_Interface_tradeByte
  54 0016 00BF     		.section	.text.SPI_Interface_ReadByte,"ax",%progbits
  55              		.align	2
  56              		.global	SPI_Interface_ReadByte
  57              		.thumb
  58              		.thumb_func
  59              		.type	SPI_Interface_ReadByte, %function
  60              	SPI_Interface_ReadByte:
  61              	.LFB1:
  47:SPI_Interface.c **** 
  48:SPI_Interface.c **** 
  49:SPI_Interface.c **** /*
  50:SPI_Interface.c **** * @brief RX-only, Dual-Operation 1-Byte READ
  51:SPI_Interface.c **** */
  52:SPI_Interface.c **** uint8_t SPI_Interface_ReadByte(uint8_t byteTX) {
  62              		.loc 1 52 0
ARM GAS  C:\Users\User\AppData\Local\Temp\ccMWb6xO.s 			page 3


  63              		.cfi_startproc
  64              		@ args = 0, pretend = 0, frame = 0
  65              		@ frame_needed = 0, uses_anonymous_args = 0
  66              	.LVL4:
  67 0000 10B5     		push	{r4, lr}
  68              		.cfi_def_cfa_offset 8
  69              		.cfi_offset 4, -8
  70              		.cfi_offset 14, -4
  71 0002 0446     		mov	r4, r0
  53:SPI_Interface.c **** 	
  54:SPI_Interface.c ****     /* Enable the Slave */
  55:SPI_Interface.c ****     //PROVA
  56:SPI_Interface.c ****     CS_2_Write(1);
  72              		.loc 1 56 0
  73 0004 0120     		movs	r0, #1
  74              	.LVL5:
  75 0006 FFF7FEFF 		bl	CS_2_Write
  76              	.LVL6:
  57:SPI_Interface.c ****     
  58:SPI_Interface.c **** //	SLAVE_CS_Write(0);
  59:SPI_Interface.c **** 	/* Load the TX Buffer */
  60:SPI_Interface.c ****     SPIM_1_WriteTxData(byteTX); /*byte da inviare*/
  77              		.loc 1 60 0
  78 000a 2046     		mov	r0, r4
  79 000c FFF7FEFF 		bl	SPIM_1_WriteTxData
  80              	.LVL7:
  61:SPI_Interface.c ****     	
  62:SPI_Interface.c ****     /* SPI Dummy Byte */
  63:SPI_Interface.c ****     SPIM_1_WriteTxData(SPI_DUMMY_BYTE); /*dummy*/
  81              		.loc 1 63 0
  82 0010 0020     		movs	r0, #0
  83 0012 FFF7FEFF 		bl	SPIM_1_WriteTxData
  84              	.LVL8:
  85              	.L5:
  64:SPI_Interface.c ****     	
  65:SPI_Interface.c ****     /* Wait for TX/RX */
  66:SPI_Interface.c ****     while(!(SPIM_1_ReadTxStatus() & SPIM_1_STS_SPI_DONE)); /*Si verificano entrambi i byte, attende
  86              		.loc 1 66 0 discriminator 1
  87 0016 FFF7FEFF 		bl	SPIM_1_ReadTxStatus
  88              	.LVL9:
  89 001a 10F0010F 		tst	r0, #1
  90 001e FAD0     		beq	.L5
  67:SPI_Interface.c ****     	                                                    /*attendo scambio di informazione tra slav
  68:SPI_Interface.c ****     /* Read the RX Buffer logica FIFO */
  69:SPI_Interface.c ****     SPIM_1_ReadRxData(); /*dummy read*/
  91              		.loc 1 69 0
  92 0020 FFF7FEFF 		bl	SPIM_1_ReadRxData
  93              	.LVL10:
  70:SPI_Interface.c ****     uint8_t byteRX = SPIM_1_ReadRxData(); /*Vera read*/
  94              		.loc 1 70 0
  95 0024 FFF7FEFF 		bl	SPIM_1_ReadRxData
  96              	.LVL11:
  97 0028 0446     		mov	r4, r0
  98              	.LVL12:
  71:SPI_Interface.c ****     	
  72:SPI_Interface.c ****     /* Disable the Slave */
  73:SPI_Interface.c ****     CS_2_Write(0);
ARM GAS  C:\Users\User\AppData\Local\Temp\ccMWb6xO.s 			page 4


  99              		.loc 1 73 0
 100 002a 0020     		movs	r0, #0
 101 002c FFF7FEFF 		bl	CS_2_Write
 102              	.LVL13:
  74:SPI_Interface.c **** //    SLAVE_CS_Write(1);
  75:SPI_Interface.c ****     	
  76:SPI_Interface.c ****     return byteRX;	
  77:SPI_Interface.c **** 
  78:SPI_Interface.c **** 		
  79:SPI_Interface.c **** 	
  80:SPI_Interface.c **** }
 103              		.loc 1 80 0
 104 0030 2046     		mov	r0, r4
 105 0032 10BD     		pop	{r4, pc}
 106              		.cfi_endproc
 107              	.LFE1:
 108              		.size	SPI_Interface_ReadByte, .-SPI_Interface_ReadByte
 109              		.section	.text.SPI_Interface_Multi_Trade,"ax",%progbits
 110              		.align	2
 111              		.global	SPI_Interface_Multi_Trade
 112              		.thumb
 113              		.thumb_func
 114              		.type	SPI_Interface_Multi_Trade, %function
 115              	SPI_Interface_Multi_Trade:
 116              	.LFB2:
  81:SPI_Interface.c **** 
  82:SPI_Interface.c **** 
  83:SPI_Interface.c **** /*
  84:SPI_Interface.c **** * @brief Full-Duplex, Multi-Byte Trade (RX/TX)
  85:SPI_Interface.c **** */
  86:SPI_Interface.c **** void SPI_Interface_Multi_Trade(uint8_t* dataTX, uint8_t* dataRX, uint8_t nBytes) {
 117              		.loc 1 86 0
 118              		.cfi_startproc
 119              		@ args = 0, pretend = 0, frame = 0
 120              		@ frame_needed = 0, uses_anonymous_args = 0
 121              		@ link register save eliminated.
 122              	.LVL14:
 123 0000 7047     		bx	lr
 124              		.cfi_endproc
 125              	.LFE2:
 126              		.size	SPI_Interface_Multi_Trade, .-SPI_Interface_Multi_Trade
 127 0002 00BF     		.section	.text.SPI_Interface_Multi_RW,"ax",%progbits
 128              		.align	2
 129              		.global	SPI_Interface_Multi_RW
 130              		.thumb
 131              		.thumb_func
 132              		.type	SPI_Interface_Multi_RW, %function
 133              	SPI_Interface_Multi_RW:
 134              	.LFB3:
  87:SPI_Interface.c **** 	
  88:SPI_Interface.c ****     
  89:SPI_Interface.c **** 	
  90:SPI_Interface.c **** }
  91:SPI_Interface.c **** 
  92:SPI_Interface.c **** /*
  93:SPI_Interface.c **** * @brief RX-only, Dual-Operation Multi-Byte READ/WRITE
  94:SPI_Interface.c **** */
ARM GAS  C:\Users\User\AppData\Local\Temp\ccMWb6xO.s 			page 5


  95:SPI_Interface.c **** void SPI_Interface_Multi_RW(uint8_t* dataTX, uint8_t bytesTX, uint8_t* dataRX, uint8_t bytesRX) {
 135              		.loc 1 95 0
 136              		.cfi_startproc
 137              		@ args = 0, pretend = 0, frame = 8
 138              		@ frame_needed = 0, uses_anonymous_args = 0
 139              	.LVL15:
 140              		.loc 1 95 0
 141 0000 2DE9F043 		push	{r4, r5, r6, r7, r8, r9, lr}
 142              		.cfi_def_cfa_offset 28
 143              		.cfi_offset 4, -28
 144              		.cfi_offset 5, -24
 145              		.cfi_offset 6, -20
 146              		.cfi_offset 7, -16
 147              		.cfi_offset 8, -12
 148              		.cfi_offset 9, -8
 149              		.cfi_offset 14, -4
 150 0004 83B0     		sub	sp, sp, #12
 151              		.cfi_def_cfa_offset 40
 152 0006 0646     		mov	r6, r0
 153 0008 1746     		mov	r7, r2
 154 000a 9846     		mov	r8, r3
  96:SPI_Interface.c **** 	
  97:SPI_Interface.c ****     /* Enable the Slave */
  98:SPI_Interface.c **** //    SLAVE_CS_Write(0);
  99:SPI_Interface.c ****     
 100:SPI_Interface.c ****     int8_t count = bytesTX, index = 0;
 155              		.loc 1 100 0
 156 000c 4CB2     		sxtb	r4, r1
 157              	.LVL16:
 158 000e 0025     		movs	r5, #0
 101:SPI_Interface.c ****     	
 102:SPI_Interface.c ****     /* Transmit Data */
 103:SPI_Interface.c ****     while ( count > 0 ) {
 159              		.loc 1 103 0
 160 0010 11E0     		b	.L9
 161              	.LVL17:
 162              	.L11:
 104:SPI_Interface.c ****             
 105:SPI_Interface.c ****     	/* Load the TX buffer with Data*/
 106:SPI_Interface.c ****             SPIM_1_PutArray(&dataTX[index*SPI_TxBufferSize], (count > SPI_TxBufferSize ? SPI_TxBuff
 163              		.loc 1 106 0
 164 0012 2146     		mov	r1, r4
 165 0014 082C     		cmp	r4, #8
 166 0016 A8BF     		it	ge
 167 0018 0821     		movge	r1, #8
 168 001a C9B2     		uxtb	r1, r1
 169 001c 06EBC500 		add	r0, r6, r5, lsl #3
 170 0020 FFF7FEFF 		bl	SPIM_1_PutArray
 171              	.LVL18:
 172              	.L10:
 107:SPI_Interface.c ****             /* Wait for TX */
 108:SPI_Interface.c ****             while( !(SPIM_1_ReadTxStatus() & SPIM_1_STS_SPI_DONE) );
 173              		.loc 1 108 0 discriminator 1
 174 0024 FFF7FEFF 		bl	SPIM_1_ReadTxStatus
 175              	.LVL19:
 176 0028 10F0010F 		tst	r0, #1
 177 002c FAD0     		beq	.L10
ARM GAS  C:\Users\User\AppData\Local\Temp\ccMWb6xO.s 			page 6


 109:SPI_Interface.c ****             
 110:SPI_Interface.c ****             /* Update count */
 111:SPI_Interface.c ****             count -= SPI_TxBufferSize;
 178              		.loc 1 111 0
 179 002e 083C     		subs	r4, r4, #8
 180              	.LVL20:
 181 0030 64B2     		sxtb	r4, r4
 182              	.LVL21:
 112:SPI_Interface.c ****             index++;
 183              		.loc 1 112 0
 184 0032 0135     		adds	r5, r5, #1
 185              	.LVL22:
 186 0034 6DB2     		sxtb	r5, r5
 187              	.LVL23:
 188              	.L9:
 103:SPI_Interface.c ****             
 189              		.loc 1 103 0
 190 0036 002C     		cmp	r4, #0
 191 0038 EBDC     		bgt	.L11
 113:SPI_Interface.c ****            
 114:SPI_Interface.c ****     }
 115:SPI_Interface.c ****         
 116:SPI_Interface.c ****     /* Clear the RX Buffer */
 117:SPI_Interface.c ****     SPIM_1_ClearFIFO();
 192              		.loc 1 117 0
 193 003a FFF7FEFF 		bl	SPIM_1_ClearFIFO
 194              	.LVL24:
 118:SPI_Interface.c ****     SPIM_1_ClearRxBuffer();
 195              		.loc 1 118 0
 196 003e FFF7FEFF 		bl	SPIM_1_ClearRxBuffer
 197              	.LVL25:
 119:SPI_Interface.c ****         
 120:SPI_Interface.c ****     /* Init the Dummy TX Buffer */
 121:SPI_Interface.c ****     uint8_t dummyTX[SPI_RxBufferSize];
 122:SPI_Interface.c ****     memset(dummyTX, SPI_DUMMY_BYTE, SPI_RxBufferSize);
 198              		.loc 1 122 0
 199 0042 0026     		movs	r6, #0
 200              	.LVL26:
 201 0044 0096     		str	r6, [sp]
 202 0046 0196     		str	r6, [sp, #4]
 123:SPI_Interface.c ****         
 124:SPI_Interface.c ****     /* Update count for RX */
 125:SPI_Interface.c ****     count = bytesRX;
 203              		.loc 1 125 0
 204 0048 4FFA88F8 		sxtb	r8, r8
 205              	.LVL27:
 126:SPI_Interface.c ****     index = 0;
 127:SPI_Interface.c ****         
 128:SPI_Interface.c ****     /* Get the RX Data */
 129:SPI_Interface.c ****     while ( count > 0 ) {
 206              		.loc 1 129 0
 207 004c 20E0     		b	.L12
 208              	.LVL28:
 209              	.L16:
 130:SPI_Interface.c ****          
 131:SPI_Interface.c ****             /* Load the TX buffer with Dummy Bytes*/
 132:SPI_Interface.c ****             SPIM_1_PutArray(dummyTX, (count > SPI_TxBufferSize ? SPI_TxBufferSize : count));
ARM GAS  C:\Users\User\AppData\Local\Temp\ccMWb6xO.s 			page 7


 210              		.loc 1 132 0
 211 004e C146     		mov	r9, r8
 212 0050 B8F1080F 		cmp	r8, #8
 213 0054 A8BF     		it	ge
 214 0056 4FF00809 		movge	r9, #8
 215 005a 5FFA89F1 		uxtb	r1, r9
 216 005e 6846     		mov	r0, sp
 217 0060 FFF7FEFF 		bl	SPIM_1_PutArray
 218              	.LVL29:
 219              	.L13:
 133:SPI_Interface.c ****             /* Wait for TX */
 134:SPI_Interface.c ****             while( !(SPIM_1_ReadTxStatus() & SPIM_1_STS_SPI_DONE) );
 220              		.loc 1 134 0 discriminator 1
 221 0064 FFF7FEFF 		bl	SPIM_1_ReadTxStatus
 222              	.LVL30:
 223 0068 10F0010F 		tst	r0, #1
 224 006c FAD0     		beq	.L13
 225 006e 0024     		movs	r4, #0
 226 0070 06E0     		b	.L14
 227              	.LVL31:
 228              	.L15:
 229              	.LBB2:
 135:SPI_Interface.c ****             /* Read the RX Buffer */
 136:SPI_Interface.c ****             for( uint8_t j = 0; j < (count > SPI_TxBufferSize ? SPI_TxBufferSize : count); j++ ) {
 137:SPI_Interface.c ****                 dataRX[j + index*SPI_RxBufferSize] = SPIM_1_ReadRxData();   
 230              		.loc 1 137 0 discriminator 3
 231 0072 04EBC605 		add	r5, r4, r6, lsl #3
 232 0076 FFF7FEFF 		bl	SPIM_1_ReadRxData
 233              	.LVL32:
 234 007a 7855     		strb	r0, [r7, r5]
 136:SPI_Interface.c ****                 dataRX[j + index*SPI_RxBufferSize] = SPIM_1_ReadRxData();   
 235              		.loc 1 136 0 discriminator 3
 236 007c 0134     		adds	r4, r4, #1
 237              	.LVL33:
 238 007e E4B2     		uxtb	r4, r4
 239              	.LVL34:
 240              	.L14:
 136:SPI_Interface.c ****                 dataRX[j + index*SPI_RxBufferSize] = SPIM_1_ReadRxData();   
 241              		.loc 1 136 0 is_stmt 0 discriminator 1
 242 0080 4C45     		cmp	r4, r9
 243 0082 F6DB     		blt	.L15
 244              	.LBE2:
 138:SPI_Interface.c ****             }
 139:SPI_Interface.c ****             
 140:SPI_Interface.c ****             count -= SPI_RxBufferSize;
 245              		.loc 1 140 0 is_stmt 1
 246 0084 A8F10808 		sub	r8, r8, #8
 247              	.LVL35:
 248 0088 4FFA88F8 		sxtb	r8, r8
 249              	.LVL36:
 141:SPI_Interface.c ****             index++;
 250              		.loc 1 141 0
 251 008c 0136     		adds	r6, r6, #1
 252              	.LVL37:
 253 008e 76B2     		sxtb	r6, r6
 254              	.LVL38:
 255              	.L12:
ARM GAS  C:\Users\User\AppData\Local\Temp\ccMWb6xO.s 			page 8


 129:SPI_Interface.c ****          
 256              		.loc 1 129 0
 257 0090 B8F1000F 		cmp	r8, #0
 258 0094 DBDC     		bgt	.L16
 142:SPI_Interface.c ****             
 143:SPI_Interface.c ****     }
 144:SPI_Interface.c ****         
 145:SPI_Interface.c ****     /* Disable the Slave */
 146:SPI_Interface.c **** //    SLAVE_CS_Write(1);
 147:SPI_Interface.c **** //    CS_2_Write(1);	
 148:SPI_Interface.c **** //    /* Clear */
 149:SPI_Interface.c **** //    SPIM_1_ClearFIFO();
 150:SPI_Interface.c **** //    SPIM_1_ClearRxBuffer();
 151:SPI_Interface.c **** //    SPIM_1_ClearTxBuffer();
 152:SPI_Interface.c **** }
 259              		.loc 1 152 0
 260 0096 03B0     		add	sp, sp, #12
 261              		.cfi_def_cfa_offset 28
 262              		@ sp needed
 263 0098 BDE8F083 		pop	{r4, r5, r6, r7, r8, r9, pc}
 264              		.cfi_endproc
 265              	.LFE3:
 266              		.size	SPI_Interface_Multi_RW, .-SPI_Interface_Multi_RW
 267              		.text
 268              	.Letext0:
 269              		.file 2 "c:\\program files (x86)\\cypress\\psoc creator\\4.3\\psoc creator\\import\\gnu\\arm\\5.4.
 270              		.file 3 "c:\\program files (x86)\\cypress\\psoc creator\\4.3\\psoc creator\\import\\gnu\\arm\\5.4.
 271              		.file 4 "Generated_Source\\PSoC5/cytypes.h"
 272              		.file 5 "Generated_Source\\PSoC5/SPIM_1.h"
 273              		.file 6 "Generated_Source\\PSoC5/CS_2.h"